
kernel/kernel:     file format elf64-littleriscv


Disassembly of section .text:

0000000080000000 <_entry>:
    80000000:	0000a117          	auipc	sp,0xa
    80000004:	18010113          	addi	sp,sp,384 # 8000a180 <stack0>
    80000008:	6505                	lui	a0,0x1
    8000000a:	f14025f3          	csrr	a1,mhartid
    8000000e:	0585                	addi	a1,a1,1
    80000010:	02b50533          	mul	a0,a0,a1
    80000014:	912a                	add	sp,sp,a0
    80000016:	078000ef          	jal	ra,8000008e <start>

000000008000001a <spin>:
    8000001a:	a001                	j	8000001a <spin>

000000008000001c <timerinit>:
// which arrive at timervec in kernelvec.S,
// which turns them into software interrupts for
// devintr() in trap.c.
void
timerinit()
{
    8000001c:	1141                	addi	sp,sp,-16
    8000001e:	e422                	sd	s0,8(sp)
    80000020:	0800                	addi	s0,sp,16
// which hart (core) is this?
static inline uint64
r_mhartid()
{
  uint64 x;
  asm volatile("csrr %0, mhartid" : "=r" (x) );
    80000022:	f14027f3          	csrr	a5,mhartid
  // each CPU has a separate source of timer interrupts.
  int id = r_mhartid();
    80000026:	0007869b          	sext.w	a3,a5

  // ask the CLINT for a timer interrupt.
  int interval = 1000000; // cycles; about 1/10th second in qemu.
  *(uint64*)CLINT_MTIMECMP(id) = *(uint64*)CLINT_MTIME + interval;
    8000002a:	0037979b          	slliw	a5,a5,0x3
    8000002e:	02004737          	lui	a4,0x2004
    80000032:	97ba                	add	a5,a5,a4
    80000034:	0200c737          	lui	a4,0x200c
    80000038:	ff873583          	ld	a1,-8(a4) # 200bff8 <_entry-0x7dff4008>
    8000003c:	000f4637          	lui	a2,0xf4
    80000040:	24060613          	addi	a2,a2,576 # f4240 <_entry-0x7ff0bdc0>
    80000044:	95b2                	add	a1,a1,a2
    80000046:	e38c                	sd	a1,0(a5)

  // prepare information in scratch[] for timervec.
  // scratch[0..2] : space for timervec to save registers.
  // scratch[3] : address of CLINT MTIMECMP register.
  // scratch[4] : desired interval (in cycles) between timer interrupts.
  uint64 *scratch = &timer_scratch[id][0];
    80000048:	00269713          	slli	a4,a3,0x2
    8000004c:	9736                	add	a4,a4,a3
    8000004e:	00371693          	slli	a3,a4,0x3
    80000052:	0000a717          	auipc	a4,0xa
    80000056:	fee70713          	addi	a4,a4,-18 # 8000a040 <timer_scratch>
    8000005a:	9736                	add	a4,a4,a3
  scratch[3] = CLINT_MTIMECMP(id);
    8000005c:	ef1c                	sd	a5,24(a4)
  scratch[4] = interval;
    8000005e:	f310                	sd	a2,32(a4)
}

static inline void 
w_mscratch(uint64 x)
{
  asm volatile("csrw mscratch, %0" : : "r" (x));
    80000060:	34071073          	csrw	mscratch,a4
  asm volatile("csrw mtvec, %0" : : "r" (x));
    80000064:	00007797          	auipc	a5,0x7
    80000068:	c6c78793          	addi	a5,a5,-916 # 80006cd0 <timervec>
    8000006c:	30579073          	csrw	mtvec,a5
  asm volatile("csrr %0, mstatus" : "=r" (x) );
    80000070:	300027f3          	csrr	a5,mstatus

  // set the machine-mode trap handler.
  w_mtvec((uint64)timervec);

  // enable machine-mode interrupts.
  w_mstatus(r_mstatus() | MSTATUS_MIE);
    80000074:	0087e793          	ori	a5,a5,8
  asm volatile("csrw mstatus, %0" : : "r" (x));
    80000078:	30079073          	csrw	mstatus,a5
  asm volatile("csrr %0, mie" : "=r" (x) );
    8000007c:	304027f3          	csrr	a5,mie

  // enable machine-mode timer interrupts.
  w_mie(r_mie() | MIE_MTIE);
    80000080:	0807e793          	ori	a5,a5,128
  asm volatile("csrw mie, %0" : : "r" (x));
    80000084:	30479073          	csrw	mie,a5
}
    80000088:	6422                	ld	s0,8(sp)
    8000008a:	0141                	addi	sp,sp,16
    8000008c:	8082                	ret

000000008000008e <start>:
{
    8000008e:	1141                	addi	sp,sp,-16
    80000090:	e406                	sd	ra,8(sp)
    80000092:	e022                	sd	s0,0(sp)
    80000094:	0800                	addi	s0,sp,16
  asm volatile("csrr %0, mstatus" : "=r" (x) );
    80000096:	300027f3          	csrr	a5,mstatus
  x &= ~MSTATUS_MPP_MASK;
    8000009a:	7779                	lui	a4,0xffffe
    8000009c:	7ff70713          	addi	a4,a4,2047 # ffffffffffffe7ff <end+0xffffffff7ffcf7ff>
    800000a0:	8ff9                	and	a5,a5,a4
  x |= MSTATUS_MPP_S;
    800000a2:	6705                	lui	a4,0x1
    800000a4:	80070713          	addi	a4,a4,-2048 # 800 <_entry-0x7ffff800>
    800000a8:	8fd9                	or	a5,a5,a4
  asm volatile("csrw mstatus, %0" : : "r" (x));
    800000aa:	30079073          	csrw	mstatus,a5
  asm volatile("csrw mepc, %0" : : "r" (x));
    800000ae:	00001797          	auipc	a5,0x1
    800000b2:	dce78793          	addi	a5,a5,-562 # 80000e7c <main>
    800000b6:	34179073          	csrw	mepc,a5
  asm volatile("csrw satp, %0" : : "r" (x));
    800000ba:	4781                	li	a5,0
    800000bc:	18079073          	csrw	satp,a5
  asm volatile("csrw medeleg, %0" : : "r" (x));
    800000c0:	67c1                	lui	a5,0x10
    800000c2:	17fd                	addi	a5,a5,-1
    800000c4:	30279073          	csrw	medeleg,a5
  asm volatile("csrw mideleg, %0" : : "r" (x));
    800000c8:	30379073          	csrw	mideleg,a5
  asm volatile("csrr %0, sie" : "=r" (x) );
    800000cc:	104027f3          	csrr	a5,sie
  w_sie(r_sie() | SIE_SEIE | SIE_STIE | SIE_SSIE);
    800000d0:	2227e793          	ori	a5,a5,546
  asm volatile("csrw sie, %0" : : "r" (x));
    800000d4:	10479073          	csrw	sie,a5
  timerinit();
    800000d8:	00000097          	auipc	ra,0x0
    800000dc:	f44080e7          	jalr	-188(ra) # 8000001c <timerinit>
  asm volatile("csrr %0, mhartid" : "=r" (x) );
    800000e0:	f14027f3          	csrr	a5,mhartid
  w_tp(id);
    800000e4:	2781                	sext.w	a5,a5
}

static inline void 
w_tp(uint64 x)
{
  asm volatile("mv tp, %0" : : "r" (x));
    800000e6:	823e                	mv	tp,a5
  asm volatile("mret");
    800000e8:	30200073          	mret
}
    800000ec:	60a2                	ld	ra,8(sp)
    800000ee:	6402                	ld	s0,0(sp)
    800000f0:	0141                	addi	sp,sp,16
    800000f2:	8082                	ret

00000000800000f4 <consolewrite>:
//
// user write()s to the console go here.
//
int
consolewrite(int user_src, uint64 src, int n)
{
    800000f4:	715d                	addi	sp,sp,-80
    800000f6:	e486                	sd	ra,72(sp)
    800000f8:	e0a2                	sd	s0,64(sp)
    800000fa:	fc26                	sd	s1,56(sp)
    800000fc:	f84a                	sd	s2,48(sp)
    800000fe:	f44e                	sd	s3,40(sp)
    80000100:	f052                	sd	s4,32(sp)
    80000102:	ec56                	sd	s5,24(sp)
    80000104:	0880                	addi	s0,sp,80
  int i;

  for(i = 0; i < n; i++){
    80000106:	04c05663          	blez	a2,80000152 <consolewrite+0x5e>
    8000010a:	8a2a                	mv	s4,a0
    8000010c:	84ae                	mv	s1,a1
    8000010e:	89b2                	mv	s3,a2
    80000110:	4901                	li	s2,0
    char c;
    if(either_copyin(&c, user_src, src+i, 1) == -1)
    80000112:	5afd                	li	s5,-1
    80000114:	4685                	li	a3,1
    80000116:	8626                	mv	a2,s1
    80000118:	85d2                	mv	a1,s4
    8000011a:	fbf40513          	addi	a0,s0,-65
    8000011e:	00003097          	auipc	ra,0x3
    80000122:	f74080e7          	jalr	-140(ra) # 80003092 <either_copyin>
    80000126:	01550c63          	beq	a0,s5,8000013e <consolewrite+0x4a>
      break;
    uartputc(c);
    8000012a:	fbf44503          	lbu	a0,-65(s0)
    8000012e:	00000097          	auipc	ra,0x0
    80000132:	77a080e7          	jalr	1914(ra) # 800008a8 <uartputc>
  for(i = 0; i < n; i++){
    80000136:	2905                	addiw	s2,s2,1
    80000138:	0485                	addi	s1,s1,1
    8000013a:	fd299de3          	bne	s3,s2,80000114 <consolewrite+0x20>
  }

  return i;
}
    8000013e:	854a                	mv	a0,s2
    80000140:	60a6                	ld	ra,72(sp)
    80000142:	6406                	ld	s0,64(sp)
    80000144:	74e2                	ld	s1,56(sp)
    80000146:	7942                	ld	s2,48(sp)
    80000148:	79a2                	ld	s3,40(sp)
    8000014a:	7a02                	ld	s4,32(sp)
    8000014c:	6ae2                	ld	s5,24(sp)
    8000014e:	6161                	addi	sp,sp,80
    80000150:	8082                	ret
  for(i = 0; i < n; i++){
    80000152:	4901                	li	s2,0
    80000154:	b7ed                	j	8000013e <consolewrite+0x4a>

0000000080000156 <consoleread>:
// user_dist indicates whether dst is a user
// or kernel address.
//
int
consoleread(int user_dst, uint64 dst, int n)
{
    80000156:	7159                	addi	sp,sp,-112
    80000158:	f486                	sd	ra,104(sp)
    8000015a:	f0a2                	sd	s0,96(sp)
    8000015c:	eca6                	sd	s1,88(sp)
    8000015e:	e8ca                	sd	s2,80(sp)
    80000160:	e4ce                	sd	s3,72(sp)
    80000162:	e0d2                	sd	s4,64(sp)
    80000164:	fc56                	sd	s5,56(sp)
    80000166:	f85a                	sd	s6,48(sp)
    80000168:	f45e                	sd	s7,40(sp)
    8000016a:	f062                	sd	s8,32(sp)
    8000016c:	ec66                	sd	s9,24(sp)
    8000016e:	e86a                	sd	s10,16(sp)
    80000170:	1880                	addi	s0,sp,112
    80000172:	8aaa                	mv	s5,a0
    80000174:	8a2e                	mv	s4,a1
    80000176:	89b2                	mv	s3,a2
  uint target;
  int c;
  char cbuf;

  target = n;
    80000178:	00060b1b          	sext.w	s6,a2
  acquire(&cons.lock);
    8000017c:	00012517          	auipc	a0,0x12
    80000180:	00450513          	addi	a0,a0,4 # 80012180 <cons>
    80000184:	00001097          	auipc	ra,0x1
    80000188:	a4e080e7          	jalr	-1458(ra) # 80000bd2 <acquire>
  while(n > 0){
    // wait until interrupt handler has put some
    // input into cons.buffer.
    while(cons.r == cons.w){
    8000018c:	00012497          	auipc	s1,0x12
    80000190:	ff448493          	addi	s1,s1,-12 # 80012180 <cons>
      if(myproc()->killed){
        release(&cons.lock);
        return -1;
      }
      sleep(&cons.r, &cons.lock);
    80000194:	00012917          	auipc	s2,0x12
    80000198:	08490913          	addi	s2,s2,132 # 80012218 <cons+0x98>
    }

    c = cons.buf[cons.r++ % INPUT_BUF];

    if(c == C('D')){  // end-of-file
    8000019c:	4b91                	li	s7,4
      break;
    }

    // copy the input byte to the user-space buffer.
    cbuf = c;
    if(either_copyout(user_dst, dst, &cbuf, 1) == -1)
    8000019e:	5c7d                	li	s8,-1
      break;

    dst++;
    --n;

    if(c == '\n'){
    800001a0:	4ca9                	li	s9,10
  while(n > 0){
    800001a2:	07305863          	blez	s3,80000212 <consoleread+0xbc>
    while(cons.r == cons.w){
    800001a6:	0984a783          	lw	a5,152(s1)
    800001aa:	09c4a703          	lw	a4,156(s1)
    800001ae:	02f71463          	bne	a4,a5,800001d6 <consoleread+0x80>
      if(myproc()->killed){
    800001b2:	00002097          	auipc	ra,0x2
    800001b6:	228080e7          	jalr	552(ra) # 800023da <myproc>
    800001ba:	551c                	lw	a5,40(a0)
    800001bc:	e7b5                	bnez	a5,80000228 <consoleread+0xd2>
      sleep(&cons.r, &cons.lock);
    800001be:	85a6                	mv	a1,s1
    800001c0:	854a                	mv	a0,s2
    800001c2:	00003097          	auipc	ra,0x3
    800001c6:	ac0080e7          	jalr	-1344(ra) # 80002c82 <sleep>
    while(cons.r == cons.w){
    800001ca:	0984a783          	lw	a5,152(s1)
    800001ce:	09c4a703          	lw	a4,156(s1)
    800001d2:	fef700e3          	beq	a4,a5,800001b2 <consoleread+0x5c>
    c = cons.buf[cons.r++ % INPUT_BUF];
    800001d6:	0017871b          	addiw	a4,a5,1
    800001da:	08e4ac23          	sw	a4,152(s1)
    800001de:	07f7f713          	andi	a4,a5,127
    800001e2:	9726                	add	a4,a4,s1
    800001e4:	01874703          	lbu	a4,24(a4)
    800001e8:	00070d1b          	sext.w	s10,a4
    if(c == C('D')){  // end-of-file
    800001ec:	077d0563          	beq	s10,s7,80000256 <consoleread+0x100>
    cbuf = c;
    800001f0:	f8e40fa3          	sb	a4,-97(s0)
    if(either_copyout(user_dst, dst, &cbuf, 1) == -1)
    800001f4:	4685                	li	a3,1
    800001f6:	f9f40613          	addi	a2,s0,-97
    800001fa:	85d2                	mv	a1,s4
    800001fc:	8556                	mv	a0,s5
    800001fe:	00003097          	auipc	ra,0x3
    80000202:	e3e080e7          	jalr	-450(ra) # 8000303c <either_copyout>
    80000206:	01850663          	beq	a0,s8,80000212 <consoleread+0xbc>
    dst++;
    8000020a:	0a05                	addi	s4,s4,1
    --n;
    8000020c:	39fd                	addiw	s3,s3,-1
    if(c == '\n'){
    8000020e:	f99d1ae3          	bne	s10,s9,800001a2 <consoleread+0x4c>
      // a whole line has arrived, return to
      // the user-level read().
      break;
    }
  }
  release(&cons.lock);
    80000212:	00012517          	auipc	a0,0x12
    80000216:	f6e50513          	addi	a0,a0,-146 # 80012180 <cons>
    8000021a:	00001097          	auipc	ra,0x1
    8000021e:	a6c080e7          	jalr	-1428(ra) # 80000c86 <release>

  return target - n;
    80000222:	413b053b          	subw	a0,s6,s3
    80000226:	a811                	j	8000023a <consoleread+0xe4>
        release(&cons.lock);
    80000228:	00012517          	auipc	a0,0x12
    8000022c:	f5850513          	addi	a0,a0,-168 # 80012180 <cons>
    80000230:	00001097          	auipc	ra,0x1
    80000234:	a56080e7          	jalr	-1450(ra) # 80000c86 <release>
        return -1;
    80000238:	557d                	li	a0,-1
}
    8000023a:	70a6                	ld	ra,104(sp)
    8000023c:	7406                	ld	s0,96(sp)
    8000023e:	64e6                	ld	s1,88(sp)
    80000240:	6946                	ld	s2,80(sp)
    80000242:	69a6                	ld	s3,72(sp)
    80000244:	6a06                	ld	s4,64(sp)
    80000246:	7ae2                	ld	s5,56(sp)
    80000248:	7b42                	ld	s6,48(sp)
    8000024a:	7ba2                	ld	s7,40(sp)
    8000024c:	7c02                	ld	s8,32(sp)
    8000024e:	6ce2                	ld	s9,24(sp)
    80000250:	6d42                	ld	s10,16(sp)
    80000252:	6165                	addi	sp,sp,112
    80000254:	8082                	ret
      if(n < target){
    80000256:	0009871b          	sext.w	a4,s3
    8000025a:	fb677ce3          	bgeu	a4,s6,80000212 <consoleread+0xbc>
        cons.r--;
    8000025e:	00012717          	auipc	a4,0x12
    80000262:	faf72d23          	sw	a5,-70(a4) # 80012218 <cons+0x98>
    80000266:	b775                	j	80000212 <consoleread+0xbc>

0000000080000268 <consputc>:
{
    80000268:	1141                	addi	sp,sp,-16
    8000026a:	e406                	sd	ra,8(sp)
    8000026c:	e022                	sd	s0,0(sp)
    8000026e:	0800                	addi	s0,sp,16
  if(c == BACKSPACE){
    80000270:	10000793          	li	a5,256
    80000274:	00f50a63          	beq	a0,a5,80000288 <consputc+0x20>
    uartputc_sync(c);
    80000278:	00000097          	auipc	ra,0x0
    8000027c:	55e080e7          	jalr	1374(ra) # 800007d6 <uartputc_sync>
}
    80000280:	60a2                	ld	ra,8(sp)
    80000282:	6402                	ld	s0,0(sp)
    80000284:	0141                	addi	sp,sp,16
    80000286:	8082                	ret
    uartputc_sync('\b'); uartputc_sync(' '); uartputc_sync('\b');
    80000288:	4521                	li	a0,8
    8000028a:	00000097          	auipc	ra,0x0
    8000028e:	54c080e7          	jalr	1356(ra) # 800007d6 <uartputc_sync>
    80000292:	02000513          	li	a0,32
    80000296:	00000097          	auipc	ra,0x0
    8000029a:	540080e7          	jalr	1344(ra) # 800007d6 <uartputc_sync>
    8000029e:	4521                	li	a0,8
    800002a0:	00000097          	auipc	ra,0x0
    800002a4:	536080e7          	jalr	1334(ra) # 800007d6 <uartputc_sync>
    800002a8:	bfe1                	j	80000280 <consputc+0x18>

00000000800002aa <consoleintr>:
// do erase/kill processing, append to cons.buf,
// wake up consoleread() if a whole line has arrived.
//
void
consoleintr(int c)
{
    800002aa:	1101                	addi	sp,sp,-32
    800002ac:	ec06                	sd	ra,24(sp)
    800002ae:	e822                	sd	s0,16(sp)
    800002b0:	e426                	sd	s1,8(sp)
    800002b2:	e04a                	sd	s2,0(sp)
    800002b4:	1000                	addi	s0,sp,32
    800002b6:	84aa                	mv	s1,a0
  acquire(&cons.lock);
    800002b8:	00012517          	auipc	a0,0x12
    800002bc:	ec850513          	addi	a0,a0,-312 # 80012180 <cons>
    800002c0:	00001097          	auipc	ra,0x1
    800002c4:	912080e7          	jalr	-1774(ra) # 80000bd2 <acquire>

  switch(c){
    800002c8:	47d5                	li	a5,21
    800002ca:	0af48663          	beq	s1,a5,80000376 <consoleintr+0xcc>
    800002ce:	0297ca63          	blt	a5,s1,80000302 <consoleintr+0x58>
    800002d2:	47a1                	li	a5,8
    800002d4:	0ef48763          	beq	s1,a5,800003c2 <consoleintr+0x118>
    800002d8:	47c1                	li	a5,16
    800002da:	10f49a63          	bne	s1,a5,800003ee <consoleintr+0x144>
  case C('P'):  // Print process list.
    procdump();
    800002de:	00003097          	auipc	ra,0x3
    800002e2:	e0a080e7          	jalr	-502(ra) # 800030e8 <procdump>
      }
    }
    break;
  }
  
  release(&cons.lock);
    800002e6:	00012517          	auipc	a0,0x12
    800002ea:	e9a50513          	addi	a0,a0,-358 # 80012180 <cons>
    800002ee:	00001097          	auipc	ra,0x1
    800002f2:	998080e7          	jalr	-1640(ra) # 80000c86 <release>
}
    800002f6:	60e2                	ld	ra,24(sp)
    800002f8:	6442                	ld	s0,16(sp)
    800002fa:	64a2                	ld	s1,8(sp)
    800002fc:	6902                	ld	s2,0(sp)
    800002fe:	6105                	addi	sp,sp,32
    80000300:	8082                	ret
  switch(c){
    80000302:	07f00793          	li	a5,127
    80000306:	0af48e63          	beq	s1,a5,800003c2 <consoleintr+0x118>
    if(c != 0 && cons.e-cons.r < INPUT_BUF){
    8000030a:	00012717          	auipc	a4,0x12
    8000030e:	e7670713          	addi	a4,a4,-394 # 80012180 <cons>
    80000312:	0a072783          	lw	a5,160(a4)
    80000316:	09872703          	lw	a4,152(a4)
    8000031a:	9f99                	subw	a5,a5,a4
    8000031c:	07f00713          	li	a4,127
    80000320:	fcf763e3          	bltu	a4,a5,800002e6 <consoleintr+0x3c>
      c = (c == '\r') ? '\n' : c;
    80000324:	47b5                	li	a5,13
    80000326:	0cf48763          	beq	s1,a5,800003f4 <consoleintr+0x14a>
      consputc(c);
    8000032a:	8526                	mv	a0,s1
    8000032c:	00000097          	auipc	ra,0x0
    80000330:	f3c080e7          	jalr	-196(ra) # 80000268 <consputc>
      cons.buf[cons.e++ % INPUT_BUF] = c;
    80000334:	00012797          	auipc	a5,0x12
    80000338:	e4c78793          	addi	a5,a5,-436 # 80012180 <cons>
    8000033c:	0a07a703          	lw	a4,160(a5)
    80000340:	0017069b          	addiw	a3,a4,1
    80000344:	0006861b          	sext.w	a2,a3
    80000348:	0ad7a023          	sw	a3,160(a5)
    8000034c:	07f77713          	andi	a4,a4,127
    80000350:	97ba                	add	a5,a5,a4
    80000352:	00978c23          	sb	s1,24(a5)
      if(c == '\n' || c == C('D') || cons.e == cons.r+INPUT_BUF){
    80000356:	47a9                	li	a5,10
    80000358:	0cf48563          	beq	s1,a5,80000422 <consoleintr+0x178>
    8000035c:	4791                	li	a5,4
    8000035e:	0cf48263          	beq	s1,a5,80000422 <consoleintr+0x178>
    80000362:	00012797          	auipc	a5,0x12
    80000366:	eb67a783          	lw	a5,-330(a5) # 80012218 <cons+0x98>
    8000036a:	0807879b          	addiw	a5,a5,128
    8000036e:	f6f61ce3          	bne	a2,a5,800002e6 <consoleintr+0x3c>
      cons.buf[cons.e++ % INPUT_BUF] = c;
    80000372:	863e                	mv	a2,a5
    80000374:	a07d                	j	80000422 <consoleintr+0x178>
    while(cons.e != cons.w &&
    80000376:	00012717          	auipc	a4,0x12
    8000037a:	e0a70713          	addi	a4,a4,-502 # 80012180 <cons>
    8000037e:	0a072783          	lw	a5,160(a4)
    80000382:	09c72703          	lw	a4,156(a4)
          cons.buf[(cons.e-1) % INPUT_BUF] != '\n'){
    80000386:	00012497          	auipc	s1,0x12
    8000038a:	dfa48493          	addi	s1,s1,-518 # 80012180 <cons>
    while(cons.e != cons.w &&
    8000038e:	4929                	li	s2,10
    80000390:	f4f70be3          	beq	a4,a5,800002e6 <consoleintr+0x3c>
          cons.buf[(cons.e-1) % INPUT_BUF] != '\n'){
    80000394:	37fd                	addiw	a5,a5,-1
    80000396:	07f7f713          	andi	a4,a5,127
    8000039a:	9726                	add	a4,a4,s1
    while(cons.e != cons.w &&
    8000039c:	01874703          	lbu	a4,24(a4)
    800003a0:	f52703e3          	beq	a4,s2,800002e6 <consoleintr+0x3c>
      cons.e--;
    800003a4:	0af4a023          	sw	a5,160(s1)
      consputc(BACKSPACE);
    800003a8:	10000513          	li	a0,256
    800003ac:	00000097          	auipc	ra,0x0
    800003b0:	ebc080e7          	jalr	-324(ra) # 80000268 <consputc>
    while(cons.e != cons.w &&
    800003b4:	0a04a783          	lw	a5,160(s1)
    800003b8:	09c4a703          	lw	a4,156(s1)
    800003bc:	fcf71ce3          	bne	a4,a5,80000394 <consoleintr+0xea>
    800003c0:	b71d                	j	800002e6 <consoleintr+0x3c>
    if(cons.e != cons.w){
    800003c2:	00012717          	auipc	a4,0x12
    800003c6:	dbe70713          	addi	a4,a4,-578 # 80012180 <cons>
    800003ca:	0a072783          	lw	a5,160(a4)
    800003ce:	09c72703          	lw	a4,156(a4)
    800003d2:	f0f70ae3          	beq	a4,a5,800002e6 <consoleintr+0x3c>
      cons.e--;
    800003d6:	37fd                	addiw	a5,a5,-1
    800003d8:	00012717          	auipc	a4,0x12
    800003dc:	e4f72423          	sw	a5,-440(a4) # 80012220 <cons+0xa0>
      consputc(BACKSPACE);
    800003e0:	10000513          	li	a0,256
    800003e4:	00000097          	auipc	ra,0x0
    800003e8:	e84080e7          	jalr	-380(ra) # 80000268 <consputc>
    800003ec:	bded                	j	800002e6 <consoleintr+0x3c>
    if(c != 0 && cons.e-cons.r < INPUT_BUF){
    800003ee:	ee048ce3          	beqz	s1,800002e6 <consoleintr+0x3c>
    800003f2:	bf21                	j	8000030a <consoleintr+0x60>
      consputc(c);
    800003f4:	4529                	li	a0,10
    800003f6:	00000097          	auipc	ra,0x0
    800003fa:	e72080e7          	jalr	-398(ra) # 80000268 <consputc>
      cons.buf[cons.e++ % INPUT_BUF] = c;
    800003fe:	00012797          	auipc	a5,0x12
    80000402:	d8278793          	addi	a5,a5,-638 # 80012180 <cons>
    80000406:	0a07a703          	lw	a4,160(a5)
    8000040a:	0017069b          	addiw	a3,a4,1
    8000040e:	0006861b          	sext.w	a2,a3
    80000412:	0ad7a023          	sw	a3,160(a5)
    80000416:	07f77713          	andi	a4,a4,127
    8000041a:	97ba                	add	a5,a5,a4
    8000041c:	4729                	li	a4,10
    8000041e:	00e78c23          	sb	a4,24(a5)
        cons.w = cons.e;
    80000422:	00012797          	auipc	a5,0x12
    80000426:	dec7ad23          	sw	a2,-518(a5) # 8001221c <cons+0x9c>
        wakeup(&cons.r);
    8000042a:	00012517          	auipc	a0,0x12
    8000042e:	dee50513          	addi	a0,a0,-530 # 80012218 <cons+0x98>
    80000432:	00003097          	auipc	ra,0x3
    80000436:	9dc080e7          	jalr	-1572(ra) # 80002e0e <wakeup>
    8000043a:	b575                	j	800002e6 <consoleintr+0x3c>

000000008000043c <consoleinit>:

void
consoleinit(void)
{
    8000043c:	1141                	addi	sp,sp,-16
    8000043e:	e406                	sd	ra,8(sp)
    80000440:	e022                	sd	s0,0(sp)
    80000442:	0800                	addi	s0,sp,16
  initlock(&cons.lock, "cons");
    80000444:	00009597          	auipc	a1,0x9
    80000448:	bcc58593          	addi	a1,a1,-1076 # 80009010 <etext+0x10>
    8000044c:	00012517          	auipc	a0,0x12
    80000450:	d3450513          	addi	a0,a0,-716 # 80012180 <cons>
    80000454:	00000097          	auipc	ra,0x0
    80000458:	6ee080e7          	jalr	1774(ra) # 80000b42 <initlock>

  uartinit();
    8000045c:	00000097          	auipc	ra,0x0
    80000460:	32a080e7          	jalr	810(ra) # 80000786 <uartinit>

  // connect read and write system calls
  // to consoleread and consolewrite.
  devsw[CONSOLE].read = consoleread;
    80000464:	0002a797          	auipc	a5,0x2a
    80000468:	4b478793          	addi	a5,a5,1204 # 8002a918 <devsw>
    8000046c:	00000717          	auipc	a4,0x0
    80000470:	cea70713          	addi	a4,a4,-790 # 80000156 <consoleread>
    80000474:	eb98                	sd	a4,16(a5)
  devsw[CONSOLE].write = consolewrite;
    80000476:	00000717          	auipc	a4,0x0
    8000047a:	c7e70713          	addi	a4,a4,-898 # 800000f4 <consolewrite>
    8000047e:	ef98                	sd	a4,24(a5)
}
    80000480:	60a2                	ld	ra,8(sp)
    80000482:	6402                	ld	s0,0(sp)
    80000484:	0141                	addi	sp,sp,16
    80000486:	8082                	ret

0000000080000488 <printint>:

static char digits[] = "0123456789abcdef";

static void
printint(int xx, int base, int sign)
{
    80000488:	7179                	addi	sp,sp,-48
    8000048a:	f406                	sd	ra,40(sp)
    8000048c:	f022                	sd	s0,32(sp)
    8000048e:	ec26                	sd	s1,24(sp)
    80000490:	e84a                	sd	s2,16(sp)
    80000492:	1800                	addi	s0,sp,48
  char buf[16];
  int i;
  uint x;

  if(sign && (sign = xx < 0))
    80000494:	c219                	beqz	a2,8000049a <printint+0x12>
    80000496:	08054663          	bltz	a0,80000522 <printint+0x9a>
    x = -xx;
  else
    x = xx;
    8000049a:	2501                	sext.w	a0,a0
    8000049c:	4881                	li	a7,0
    8000049e:	fd040693          	addi	a3,s0,-48

  i = 0;
    800004a2:	4701                	li	a4,0
  do {
    buf[i++] = digits[x % base];
    800004a4:	2581                	sext.w	a1,a1
    800004a6:	00009617          	auipc	a2,0x9
    800004aa:	b9a60613          	addi	a2,a2,-1126 # 80009040 <digits>
    800004ae:	883a                	mv	a6,a4
    800004b0:	2705                	addiw	a4,a4,1
    800004b2:	02b577bb          	remuw	a5,a0,a1
    800004b6:	1782                	slli	a5,a5,0x20
    800004b8:	9381                	srli	a5,a5,0x20
    800004ba:	97b2                	add	a5,a5,a2
    800004bc:	0007c783          	lbu	a5,0(a5)
    800004c0:	00f68023          	sb	a5,0(a3)
  } while((x /= base) != 0);
    800004c4:	0005079b          	sext.w	a5,a0
    800004c8:	02b5553b          	divuw	a0,a0,a1
    800004cc:	0685                	addi	a3,a3,1
    800004ce:	feb7f0e3          	bgeu	a5,a1,800004ae <printint+0x26>

  if(sign)
    800004d2:	00088b63          	beqz	a7,800004e8 <printint+0x60>
    buf[i++] = '-';
    800004d6:	fe040793          	addi	a5,s0,-32
    800004da:	973e                	add	a4,a4,a5
    800004dc:	02d00793          	li	a5,45
    800004e0:	fef70823          	sb	a5,-16(a4)
    800004e4:	0028071b          	addiw	a4,a6,2

  while(--i >= 0)
    800004e8:	02e05763          	blez	a4,80000516 <printint+0x8e>
    800004ec:	fd040793          	addi	a5,s0,-48
    800004f0:	00e784b3          	add	s1,a5,a4
    800004f4:	fff78913          	addi	s2,a5,-1
    800004f8:	993a                	add	s2,s2,a4
    800004fa:	377d                	addiw	a4,a4,-1
    800004fc:	1702                	slli	a4,a4,0x20
    800004fe:	9301                	srli	a4,a4,0x20
    80000500:	40e90933          	sub	s2,s2,a4
    consputc(buf[i]);
    80000504:	fff4c503          	lbu	a0,-1(s1)
    80000508:	00000097          	auipc	ra,0x0
    8000050c:	d60080e7          	jalr	-672(ra) # 80000268 <consputc>
  while(--i >= 0)
    80000510:	14fd                	addi	s1,s1,-1
    80000512:	ff2499e3          	bne	s1,s2,80000504 <printint+0x7c>
}
    80000516:	70a2                	ld	ra,40(sp)
    80000518:	7402                	ld	s0,32(sp)
    8000051a:	64e2                	ld	s1,24(sp)
    8000051c:	6942                	ld	s2,16(sp)
    8000051e:	6145                	addi	sp,sp,48
    80000520:	8082                	ret
    x = -xx;
    80000522:	40a0053b          	negw	a0,a0
  if(sign && (sign = xx < 0))
    80000526:	4885                	li	a7,1
    x = -xx;
    80000528:	bf9d                	j	8000049e <printint+0x16>

000000008000052a <panic>:
    release(&pr.lock);
}

void
panic(char *s)
{
    8000052a:	1101                	addi	sp,sp,-32
    8000052c:	ec06                	sd	ra,24(sp)
    8000052e:	e822                	sd	s0,16(sp)
    80000530:	e426                	sd	s1,8(sp)
    80000532:	1000                	addi	s0,sp,32
    80000534:	84aa                	mv	s1,a0
  pr.locking = 0;
    80000536:	00012797          	auipc	a5,0x12
    8000053a:	d007a523          	sw	zero,-758(a5) # 80012240 <pr+0x18>
  printf("panic: ");
    8000053e:	00009517          	auipc	a0,0x9
    80000542:	ada50513          	addi	a0,a0,-1318 # 80009018 <etext+0x18>
    80000546:	00000097          	auipc	ra,0x0
    8000054a:	02e080e7          	jalr	46(ra) # 80000574 <printf>
  printf(s);
    8000054e:	8526                	mv	a0,s1
    80000550:	00000097          	auipc	ra,0x0
    80000554:	024080e7          	jalr	36(ra) # 80000574 <printf>
  printf("\n");
    80000558:	00009517          	auipc	a0,0x9
    8000055c:	ce050513          	addi	a0,a0,-800 # 80009238 <digits+0x1f8>
    80000560:	00000097          	auipc	ra,0x0
    80000564:	014080e7          	jalr	20(ra) # 80000574 <printf>
  panicked = 1; // freeze uart output from other CPUs
    80000568:	4785                	li	a5,1
    8000056a:	0000a717          	auipc	a4,0xa
    8000056e:	a8f72b23          	sw	a5,-1386(a4) # 8000a000 <panicked>
  for(;;)
    80000572:	a001                	j	80000572 <panic+0x48>

0000000080000574 <printf>:
{
    80000574:	7131                	addi	sp,sp,-192
    80000576:	fc86                	sd	ra,120(sp)
    80000578:	f8a2                	sd	s0,112(sp)
    8000057a:	f4a6                	sd	s1,104(sp)
    8000057c:	f0ca                	sd	s2,96(sp)
    8000057e:	ecce                	sd	s3,88(sp)
    80000580:	e8d2                	sd	s4,80(sp)
    80000582:	e4d6                	sd	s5,72(sp)
    80000584:	e0da                	sd	s6,64(sp)
    80000586:	fc5e                	sd	s7,56(sp)
    80000588:	f862                	sd	s8,48(sp)
    8000058a:	f466                	sd	s9,40(sp)
    8000058c:	f06a                	sd	s10,32(sp)
    8000058e:	ec6e                	sd	s11,24(sp)
    80000590:	0100                	addi	s0,sp,128
    80000592:	8a2a                	mv	s4,a0
    80000594:	e40c                	sd	a1,8(s0)
    80000596:	e810                	sd	a2,16(s0)
    80000598:	ec14                	sd	a3,24(s0)
    8000059a:	f018                	sd	a4,32(s0)
    8000059c:	f41c                	sd	a5,40(s0)
    8000059e:	03043823          	sd	a6,48(s0)
    800005a2:	03143c23          	sd	a7,56(s0)
  locking = pr.locking;
    800005a6:	00012d97          	auipc	s11,0x12
    800005aa:	c9adad83          	lw	s11,-870(s11) # 80012240 <pr+0x18>
  if(locking)
    800005ae:	020d9b63          	bnez	s11,800005e4 <printf+0x70>
  if (fmt == 0)
    800005b2:	040a0263          	beqz	s4,800005f6 <printf+0x82>
  va_start(ap, fmt);
    800005b6:	00840793          	addi	a5,s0,8
    800005ba:	f8f43423          	sd	a5,-120(s0)
  for(i = 0; (c = fmt[i] & 0xff) != 0; i++){
    800005be:	000a4503          	lbu	a0,0(s4)
    800005c2:	14050f63          	beqz	a0,80000720 <printf+0x1ac>
    800005c6:	4981                	li	s3,0
    if(c != '%'){
    800005c8:	02500a93          	li	s5,37
    switch(c){
    800005cc:	07000b93          	li	s7,112
  consputc('x');
    800005d0:	4d41                	li	s10,16
    consputc(digits[x >> (sizeof(uint64) * 8 - 4)]);
    800005d2:	00009b17          	auipc	s6,0x9
    800005d6:	a6eb0b13          	addi	s6,s6,-1426 # 80009040 <digits>
    switch(c){
    800005da:	07300c93          	li	s9,115
    800005de:	06400c13          	li	s8,100
    800005e2:	a82d                	j	8000061c <printf+0xa8>
    acquire(&pr.lock);
    800005e4:	00012517          	auipc	a0,0x12
    800005e8:	c4450513          	addi	a0,a0,-956 # 80012228 <pr>
    800005ec:	00000097          	auipc	ra,0x0
    800005f0:	5e6080e7          	jalr	1510(ra) # 80000bd2 <acquire>
    800005f4:	bf7d                	j	800005b2 <printf+0x3e>
    panic("null fmt");
    800005f6:	00009517          	auipc	a0,0x9
    800005fa:	a3250513          	addi	a0,a0,-1486 # 80009028 <etext+0x28>
    800005fe:	00000097          	auipc	ra,0x0
    80000602:	f2c080e7          	jalr	-212(ra) # 8000052a <panic>
      consputc(c);
    80000606:	00000097          	auipc	ra,0x0
    8000060a:	c62080e7          	jalr	-926(ra) # 80000268 <consputc>
  for(i = 0; (c = fmt[i] & 0xff) != 0; i++){
    8000060e:	2985                	addiw	s3,s3,1
    80000610:	013a07b3          	add	a5,s4,s3
    80000614:	0007c503          	lbu	a0,0(a5)
    80000618:	10050463          	beqz	a0,80000720 <printf+0x1ac>
    if(c != '%'){
    8000061c:	ff5515e3          	bne	a0,s5,80000606 <printf+0x92>
    c = fmt[++i] & 0xff;
    80000620:	2985                	addiw	s3,s3,1
    80000622:	013a07b3          	add	a5,s4,s3
    80000626:	0007c783          	lbu	a5,0(a5)
    8000062a:	0007849b          	sext.w	s1,a5
    if(c == 0)
    8000062e:	cbed                	beqz	a5,80000720 <printf+0x1ac>
    switch(c){
    80000630:	05778a63          	beq	a5,s7,80000684 <printf+0x110>
    80000634:	02fbf663          	bgeu	s7,a5,80000660 <printf+0xec>
    80000638:	09978863          	beq	a5,s9,800006c8 <printf+0x154>
    8000063c:	07800713          	li	a4,120
    80000640:	0ce79563          	bne	a5,a4,8000070a <printf+0x196>
      printint(va_arg(ap, int), 16, 1);
    80000644:	f8843783          	ld	a5,-120(s0)
    80000648:	00878713          	addi	a4,a5,8
    8000064c:	f8e43423          	sd	a4,-120(s0)
    80000650:	4605                	li	a2,1
    80000652:	85ea                	mv	a1,s10
    80000654:	4388                	lw	a0,0(a5)
    80000656:	00000097          	auipc	ra,0x0
    8000065a:	e32080e7          	jalr	-462(ra) # 80000488 <printint>
      break;
    8000065e:	bf45                	j	8000060e <printf+0x9a>
    switch(c){
    80000660:	09578f63          	beq	a5,s5,800006fe <printf+0x18a>
    80000664:	0b879363          	bne	a5,s8,8000070a <printf+0x196>
      printint(va_arg(ap, int), 10, 1);
    80000668:	f8843783          	ld	a5,-120(s0)
    8000066c:	00878713          	addi	a4,a5,8
    80000670:	f8e43423          	sd	a4,-120(s0)
    80000674:	4605                	li	a2,1
    80000676:	45a9                	li	a1,10
    80000678:	4388                	lw	a0,0(a5)
    8000067a:	00000097          	auipc	ra,0x0
    8000067e:	e0e080e7          	jalr	-498(ra) # 80000488 <printint>
      break;
    80000682:	b771                	j	8000060e <printf+0x9a>
      printptr(va_arg(ap, uint64));
    80000684:	f8843783          	ld	a5,-120(s0)
    80000688:	00878713          	addi	a4,a5,8
    8000068c:	f8e43423          	sd	a4,-120(s0)
    80000690:	0007b903          	ld	s2,0(a5)
  consputc('0');
    80000694:	03000513          	li	a0,48
    80000698:	00000097          	auipc	ra,0x0
    8000069c:	bd0080e7          	jalr	-1072(ra) # 80000268 <consputc>
  consputc('x');
    800006a0:	07800513          	li	a0,120
    800006a4:	00000097          	auipc	ra,0x0
    800006a8:	bc4080e7          	jalr	-1084(ra) # 80000268 <consputc>
    800006ac:	84ea                	mv	s1,s10
    consputc(digits[x >> (sizeof(uint64) * 8 - 4)]);
    800006ae:	03c95793          	srli	a5,s2,0x3c
    800006b2:	97da                	add	a5,a5,s6
    800006b4:	0007c503          	lbu	a0,0(a5)
    800006b8:	00000097          	auipc	ra,0x0
    800006bc:	bb0080e7          	jalr	-1104(ra) # 80000268 <consputc>
  for (i = 0; i < (sizeof(uint64) * 2); i++, x <<= 4)
    800006c0:	0912                	slli	s2,s2,0x4
    800006c2:	34fd                	addiw	s1,s1,-1
    800006c4:	f4ed                	bnez	s1,800006ae <printf+0x13a>
    800006c6:	b7a1                	j	8000060e <printf+0x9a>
      if((s = va_arg(ap, char*)) == 0)
    800006c8:	f8843783          	ld	a5,-120(s0)
    800006cc:	00878713          	addi	a4,a5,8
    800006d0:	f8e43423          	sd	a4,-120(s0)
    800006d4:	6384                	ld	s1,0(a5)
    800006d6:	cc89                	beqz	s1,800006f0 <printf+0x17c>
      for(; *s; s++)
    800006d8:	0004c503          	lbu	a0,0(s1)
    800006dc:	d90d                	beqz	a0,8000060e <printf+0x9a>
        consputc(*s);
    800006de:	00000097          	auipc	ra,0x0
    800006e2:	b8a080e7          	jalr	-1142(ra) # 80000268 <consputc>
      for(; *s; s++)
    800006e6:	0485                	addi	s1,s1,1
    800006e8:	0004c503          	lbu	a0,0(s1)
    800006ec:	f96d                	bnez	a0,800006de <printf+0x16a>
    800006ee:	b705                	j	8000060e <printf+0x9a>
        s = "(null)";
    800006f0:	00009497          	auipc	s1,0x9
    800006f4:	93048493          	addi	s1,s1,-1744 # 80009020 <etext+0x20>
      for(; *s; s++)
    800006f8:	02800513          	li	a0,40
    800006fc:	b7cd                	j	800006de <printf+0x16a>
      consputc('%');
    800006fe:	8556                	mv	a0,s5
    80000700:	00000097          	auipc	ra,0x0
    80000704:	b68080e7          	jalr	-1176(ra) # 80000268 <consputc>
      break;
    80000708:	b719                	j	8000060e <printf+0x9a>
      consputc('%');
    8000070a:	8556                	mv	a0,s5
    8000070c:	00000097          	auipc	ra,0x0
    80000710:	b5c080e7          	jalr	-1188(ra) # 80000268 <consputc>
      consputc(c);
    80000714:	8526                	mv	a0,s1
    80000716:	00000097          	auipc	ra,0x0
    8000071a:	b52080e7          	jalr	-1198(ra) # 80000268 <consputc>
      break;
    8000071e:	bdc5                	j	8000060e <printf+0x9a>
  if(locking)
    80000720:	020d9163          	bnez	s11,80000742 <printf+0x1ce>
}
    80000724:	70e6                	ld	ra,120(sp)
    80000726:	7446                	ld	s0,112(sp)
    80000728:	74a6                	ld	s1,104(sp)
    8000072a:	7906                	ld	s2,96(sp)
    8000072c:	69e6                	ld	s3,88(sp)
    8000072e:	6a46                	ld	s4,80(sp)
    80000730:	6aa6                	ld	s5,72(sp)
    80000732:	6b06                	ld	s6,64(sp)
    80000734:	7be2                	ld	s7,56(sp)
    80000736:	7c42                	ld	s8,48(sp)
    80000738:	7ca2                	ld	s9,40(sp)
    8000073a:	7d02                	ld	s10,32(sp)
    8000073c:	6de2                	ld	s11,24(sp)
    8000073e:	6129                	addi	sp,sp,192
    80000740:	8082                	ret
    release(&pr.lock);
    80000742:	00012517          	auipc	a0,0x12
    80000746:	ae650513          	addi	a0,a0,-1306 # 80012228 <pr>
    8000074a:	00000097          	auipc	ra,0x0
    8000074e:	53c080e7          	jalr	1340(ra) # 80000c86 <release>
}
    80000752:	bfc9                	j	80000724 <printf+0x1b0>

0000000080000754 <printfinit>:
    ;
}

void
printfinit(void)
{
    80000754:	1101                	addi	sp,sp,-32
    80000756:	ec06                	sd	ra,24(sp)
    80000758:	e822                	sd	s0,16(sp)
    8000075a:	e426                	sd	s1,8(sp)
    8000075c:	1000                	addi	s0,sp,32
  initlock(&pr.lock, "pr");
    8000075e:	00012497          	auipc	s1,0x12
    80000762:	aca48493          	addi	s1,s1,-1334 # 80012228 <pr>
    80000766:	00009597          	auipc	a1,0x9
    8000076a:	8d258593          	addi	a1,a1,-1838 # 80009038 <etext+0x38>
    8000076e:	8526                	mv	a0,s1
    80000770:	00000097          	auipc	ra,0x0
    80000774:	3d2080e7          	jalr	978(ra) # 80000b42 <initlock>
  pr.locking = 1;
    80000778:	4785                	li	a5,1
    8000077a:	cc9c                	sw	a5,24(s1)
}
    8000077c:	60e2                	ld	ra,24(sp)
    8000077e:	6442                	ld	s0,16(sp)
    80000780:	64a2                	ld	s1,8(sp)
    80000782:	6105                	addi	sp,sp,32
    80000784:	8082                	ret

0000000080000786 <uartinit>:

void uartstart();

void
uartinit(void)
{
    80000786:	1141                	addi	sp,sp,-16
    80000788:	e406                	sd	ra,8(sp)
    8000078a:	e022                	sd	s0,0(sp)
    8000078c:	0800                	addi	s0,sp,16
  // disable interrupts.
  WriteReg(IER, 0x00);
    8000078e:	100007b7          	lui	a5,0x10000
    80000792:	000780a3          	sb	zero,1(a5) # 10000001 <_entry-0x6fffffff>

  // special mode to set baud rate.
  WriteReg(LCR, LCR_BAUD_LATCH);
    80000796:	f8000713          	li	a4,-128
    8000079a:	00e781a3          	sb	a4,3(a5)

  // LSB for baud rate of 38.4K.
  WriteReg(0, 0x03);
    8000079e:	470d                	li	a4,3
    800007a0:	00e78023          	sb	a4,0(a5)

  // MSB for baud rate of 38.4K.
  WriteReg(1, 0x00);
    800007a4:	000780a3          	sb	zero,1(a5)

  // leave set-baud mode,
  // and set word length to 8 bits, no parity.
  WriteReg(LCR, LCR_EIGHT_BITS);
    800007a8:	00e781a3          	sb	a4,3(a5)

  // reset and enable FIFOs.
  WriteReg(FCR, FCR_FIFO_ENABLE | FCR_FIFO_CLEAR);
    800007ac:	469d                	li	a3,7
    800007ae:	00d78123          	sb	a3,2(a5)

  // enable transmit and receive interrupts.
  WriteReg(IER, IER_TX_ENABLE | IER_RX_ENABLE);
    800007b2:	00e780a3          	sb	a4,1(a5)

  initlock(&uart_tx_lock, "uart");
    800007b6:	00009597          	auipc	a1,0x9
    800007ba:	8a258593          	addi	a1,a1,-1886 # 80009058 <digits+0x18>
    800007be:	00012517          	auipc	a0,0x12
    800007c2:	a8a50513          	addi	a0,a0,-1398 # 80012248 <uart_tx_lock>
    800007c6:	00000097          	auipc	ra,0x0
    800007ca:	37c080e7          	jalr	892(ra) # 80000b42 <initlock>
}
    800007ce:	60a2                	ld	ra,8(sp)
    800007d0:	6402                	ld	s0,0(sp)
    800007d2:	0141                	addi	sp,sp,16
    800007d4:	8082                	ret

00000000800007d6 <uartputc_sync>:
// use interrupts, for use by kernel printf() and
// to echo characters. it spins waiting for the uart's
// output register to be empty.
void
uartputc_sync(int c)
{
    800007d6:	1101                	addi	sp,sp,-32
    800007d8:	ec06                	sd	ra,24(sp)
    800007da:	e822                	sd	s0,16(sp)
    800007dc:	e426                	sd	s1,8(sp)
    800007de:	1000                	addi	s0,sp,32
    800007e0:	84aa                	mv	s1,a0
  push_off();
    800007e2:	00000097          	auipc	ra,0x0
    800007e6:	3a4080e7          	jalr	932(ra) # 80000b86 <push_off>

  if(panicked){
    800007ea:	0000a797          	auipc	a5,0xa
    800007ee:	8167a783          	lw	a5,-2026(a5) # 8000a000 <panicked>
    for(;;)
      ;
  }

  // wait for Transmit Holding Empty to be set in LSR.
  while((ReadReg(LSR) & LSR_TX_IDLE) == 0)
    800007f2:	10000737          	lui	a4,0x10000
  if(panicked){
    800007f6:	c391                	beqz	a5,800007fa <uartputc_sync+0x24>
    for(;;)
    800007f8:	a001                	j	800007f8 <uartputc_sync+0x22>
  while((ReadReg(LSR) & LSR_TX_IDLE) == 0)
    800007fa:	00574783          	lbu	a5,5(a4) # 10000005 <_entry-0x6ffffffb>
    800007fe:	0207f793          	andi	a5,a5,32
    80000802:	dfe5                	beqz	a5,800007fa <uartputc_sync+0x24>
    ;
  WriteReg(THR, c);
    80000804:	0ff4f513          	andi	a0,s1,255
    80000808:	100007b7          	lui	a5,0x10000
    8000080c:	00a78023          	sb	a0,0(a5) # 10000000 <_entry-0x70000000>

  pop_off();
    80000810:	00000097          	auipc	ra,0x0
    80000814:	416080e7          	jalr	1046(ra) # 80000c26 <pop_off>
}
    80000818:	60e2                	ld	ra,24(sp)
    8000081a:	6442                	ld	s0,16(sp)
    8000081c:	64a2                	ld	s1,8(sp)
    8000081e:	6105                	addi	sp,sp,32
    80000820:	8082                	ret

0000000080000822 <uartstart>:
// called from both the top- and bottom-half.
void
uartstart()
{
  while(1){
    if(uart_tx_w == uart_tx_r){
    80000822:	00009797          	auipc	a5,0x9
    80000826:	7e67b783          	ld	a5,2022(a5) # 8000a008 <uart_tx_r>
    8000082a:	00009717          	auipc	a4,0x9
    8000082e:	7e673703          	ld	a4,2022(a4) # 8000a010 <uart_tx_w>
    80000832:	06f70a63          	beq	a4,a5,800008a6 <uartstart+0x84>
{
    80000836:	7139                	addi	sp,sp,-64
    80000838:	fc06                	sd	ra,56(sp)
    8000083a:	f822                	sd	s0,48(sp)
    8000083c:	f426                	sd	s1,40(sp)
    8000083e:	f04a                	sd	s2,32(sp)
    80000840:	ec4e                	sd	s3,24(sp)
    80000842:	e852                	sd	s4,16(sp)
    80000844:	e456                	sd	s5,8(sp)
    80000846:	0080                	addi	s0,sp,64
      // transmit buffer is empty.
      return;
    }
    
    if((ReadReg(LSR) & LSR_TX_IDLE) == 0){
    80000848:	10000937          	lui	s2,0x10000
      // so we cannot give it another byte.
      // it will interrupt when it's ready for a new byte.
      return;
    }
    
    int c = uart_tx_buf[uart_tx_r % UART_TX_BUF_SIZE];
    8000084c:	00012a17          	auipc	s4,0x12
    80000850:	9fca0a13          	addi	s4,s4,-1540 # 80012248 <uart_tx_lock>
    uart_tx_r += 1;
    80000854:	00009497          	auipc	s1,0x9
    80000858:	7b448493          	addi	s1,s1,1972 # 8000a008 <uart_tx_r>
    if(uart_tx_w == uart_tx_r){
    8000085c:	00009997          	auipc	s3,0x9
    80000860:	7b498993          	addi	s3,s3,1972 # 8000a010 <uart_tx_w>
    if((ReadReg(LSR) & LSR_TX_IDLE) == 0){
    80000864:	00594703          	lbu	a4,5(s2) # 10000005 <_entry-0x6ffffffb>
    80000868:	02077713          	andi	a4,a4,32
    8000086c:	c705                	beqz	a4,80000894 <uartstart+0x72>
    int c = uart_tx_buf[uart_tx_r % UART_TX_BUF_SIZE];
    8000086e:	01f7f713          	andi	a4,a5,31
    80000872:	9752                	add	a4,a4,s4
    80000874:	01874a83          	lbu	s5,24(a4)
    uart_tx_r += 1;
    80000878:	0785                	addi	a5,a5,1
    8000087a:	e09c                	sd	a5,0(s1)
    
    // maybe uartputc() is waiting for space in the buffer.
    wakeup(&uart_tx_r);
    8000087c:	8526                	mv	a0,s1
    8000087e:	00002097          	auipc	ra,0x2
    80000882:	590080e7          	jalr	1424(ra) # 80002e0e <wakeup>
    
    WriteReg(THR, c);
    80000886:	01590023          	sb	s5,0(s2)
    if(uart_tx_w == uart_tx_r){
    8000088a:	609c                	ld	a5,0(s1)
    8000088c:	0009b703          	ld	a4,0(s3)
    80000890:	fcf71ae3          	bne	a4,a5,80000864 <uartstart+0x42>
  }
}
    80000894:	70e2                	ld	ra,56(sp)
    80000896:	7442                	ld	s0,48(sp)
    80000898:	74a2                	ld	s1,40(sp)
    8000089a:	7902                	ld	s2,32(sp)
    8000089c:	69e2                	ld	s3,24(sp)
    8000089e:	6a42                	ld	s4,16(sp)
    800008a0:	6aa2                	ld	s5,8(sp)
    800008a2:	6121                	addi	sp,sp,64
    800008a4:	8082                	ret
    800008a6:	8082                	ret

00000000800008a8 <uartputc>:
{
    800008a8:	7179                	addi	sp,sp,-48
    800008aa:	f406                	sd	ra,40(sp)
    800008ac:	f022                	sd	s0,32(sp)
    800008ae:	ec26                	sd	s1,24(sp)
    800008b0:	e84a                	sd	s2,16(sp)
    800008b2:	e44e                	sd	s3,8(sp)
    800008b4:	e052                	sd	s4,0(sp)
    800008b6:	1800                	addi	s0,sp,48
    800008b8:	8a2a                	mv	s4,a0
  acquire(&uart_tx_lock);
    800008ba:	00012517          	auipc	a0,0x12
    800008be:	98e50513          	addi	a0,a0,-1650 # 80012248 <uart_tx_lock>
    800008c2:	00000097          	auipc	ra,0x0
    800008c6:	310080e7          	jalr	784(ra) # 80000bd2 <acquire>
  if(panicked){
    800008ca:	00009797          	auipc	a5,0x9
    800008ce:	7367a783          	lw	a5,1846(a5) # 8000a000 <panicked>
    800008d2:	c391                	beqz	a5,800008d6 <uartputc+0x2e>
    for(;;)
    800008d4:	a001                	j	800008d4 <uartputc+0x2c>
    if(uart_tx_w == uart_tx_r + UART_TX_BUF_SIZE){
    800008d6:	00009717          	auipc	a4,0x9
    800008da:	73a73703          	ld	a4,1850(a4) # 8000a010 <uart_tx_w>
    800008de:	00009797          	auipc	a5,0x9
    800008e2:	72a7b783          	ld	a5,1834(a5) # 8000a008 <uart_tx_r>
    800008e6:	02078793          	addi	a5,a5,32
    800008ea:	02e79b63          	bne	a5,a4,80000920 <uartputc+0x78>
      sleep(&uart_tx_r, &uart_tx_lock);
    800008ee:	00012997          	auipc	s3,0x12
    800008f2:	95a98993          	addi	s3,s3,-1702 # 80012248 <uart_tx_lock>
    800008f6:	00009497          	auipc	s1,0x9
    800008fa:	71248493          	addi	s1,s1,1810 # 8000a008 <uart_tx_r>
    if(uart_tx_w == uart_tx_r + UART_TX_BUF_SIZE){
    800008fe:	00009917          	auipc	s2,0x9
    80000902:	71290913          	addi	s2,s2,1810 # 8000a010 <uart_tx_w>
      sleep(&uart_tx_r, &uart_tx_lock);
    80000906:	85ce                	mv	a1,s3
    80000908:	8526                	mv	a0,s1
    8000090a:	00002097          	auipc	ra,0x2
    8000090e:	378080e7          	jalr	888(ra) # 80002c82 <sleep>
    if(uart_tx_w == uart_tx_r + UART_TX_BUF_SIZE){
    80000912:	00093703          	ld	a4,0(s2)
    80000916:	609c                	ld	a5,0(s1)
    80000918:	02078793          	addi	a5,a5,32
    8000091c:	fee785e3          	beq	a5,a4,80000906 <uartputc+0x5e>
      uart_tx_buf[uart_tx_w % UART_TX_BUF_SIZE] = c;
    80000920:	00012497          	auipc	s1,0x12
    80000924:	92848493          	addi	s1,s1,-1752 # 80012248 <uart_tx_lock>
    80000928:	01f77793          	andi	a5,a4,31
    8000092c:	97a6                	add	a5,a5,s1
    8000092e:	01478c23          	sb	s4,24(a5)
      uart_tx_w += 1;
    80000932:	0705                	addi	a4,a4,1
    80000934:	00009797          	auipc	a5,0x9
    80000938:	6ce7be23          	sd	a4,1756(a5) # 8000a010 <uart_tx_w>
      uartstart();
    8000093c:	00000097          	auipc	ra,0x0
    80000940:	ee6080e7          	jalr	-282(ra) # 80000822 <uartstart>
      release(&uart_tx_lock);
    80000944:	8526                	mv	a0,s1
    80000946:	00000097          	auipc	ra,0x0
    8000094a:	340080e7          	jalr	832(ra) # 80000c86 <release>
}
    8000094e:	70a2                	ld	ra,40(sp)
    80000950:	7402                	ld	s0,32(sp)
    80000952:	64e2                	ld	s1,24(sp)
    80000954:	6942                	ld	s2,16(sp)
    80000956:	69a2                	ld	s3,8(sp)
    80000958:	6a02                	ld	s4,0(sp)
    8000095a:	6145                	addi	sp,sp,48
    8000095c:	8082                	ret

000000008000095e <uartgetc>:

// read one input character from the UART.
// return -1 if none is waiting.
int
uartgetc(void)
{
    8000095e:	1141                	addi	sp,sp,-16
    80000960:	e422                	sd	s0,8(sp)
    80000962:	0800                	addi	s0,sp,16
  if(ReadReg(LSR) & 0x01){
    80000964:	100007b7          	lui	a5,0x10000
    80000968:	0057c783          	lbu	a5,5(a5) # 10000005 <_entry-0x6ffffffb>
    8000096c:	8b85                	andi	a5,a5,1
    8000096e:	cb91                	beqz	a5,80000982 <uartgetc+0x24>
    // input data is ready.
    return ReadReg(RHR);
    80000970:	100007b7          	lui	a5,0x10000
    80000974:	0007c503          	lbu	a0,0(a5) # 10000000 <_entry-0x70000000>
    80000978:	0ff57513          	andi	a0,a0,255
  } else {
    return -1;
  }
}
    8000097c:	6422                	ld	s0,8(sp)
    8000097e:	0141                	addi	sp,sp,16
    80000980:	8082                	ret
    return -1;
    80000982:	557d                	li	a0,-1
    80000984:	bfe5                	j	8000097c <uartgetc+0x1e>

0000000080000986 <uartintr>:
// handle a uart interrupt, raised because input has
// arrived, or the uart is ready for more output, or
// both. called from trap.c.
void
uartintr(void)
{
    80000986:	1101                	addi	sp,sp,-32
    80000988:	ec06                	sd	ra,24(sp)
    8000098a:	e822                	sd	s0,16(sp)
    8000098c:	e426                	sd	s1,8(sp)
    8000098e:	1000                	addi	s0,sp,32
  // read and process incoming characters.
  while(1){
    int c = uartgetc();
    if(c == -1)
    80000990:	54fd                	li	s1,-1
    80000992:	a029                	j	8000099c <uartintr+0x16>
      break;
    consoleintr(c);
    80000994:	00000097          	auipc	ra,0x0
    80000998:	916080e7          	jalr	-1770(ra) # 800002aa <consoleintr>
    int c = uartgetc();
    8000099c:	00000097          	auipc	ra,0x0
    800009a0:	fc2080e7          	jalr	-62(ra) # 8000095e <uartgetc>
    if(c == -1)
    800009a4:	fe9518e3          	bne	a0,s1,80000994 <uartintr+0xe>
  }

  // send buffered characters.
  acquire(&uart_tx_lock);
    800009a8:	00012497          	auipc	s1,0x12
    800009ac:	8a048493          	addi	s1,s1,-1888 # 80012248 <uart_tx_lock>
    800009b0:	8526                	mv	a0,s1
    800009b2:	00000097          	auipc	ra,0x0
    800009b6:	220080e7          	jalr	544(ra) # 80000bd2 <acquire>
  uartstart();
    800009ba:	00000097          	auipc	ra,0x0
    800009be:	e68080e7          	jalr	-408(ra) # 80000822 <uartstart>
  release(&uart_tx_lock);
    800009c2:	8526                	mv	a0,s1
    800009c4:	00000097          	auipc	ra,0x0
    800009c8:	2c2080e7          	jalr	706(ra) # 80000c86 <release>
}
    800009cc:	60e2                	ld	ra,24(sp)
    800009ce:	6442                	ld	s0,16(sp)
    800009d0:	64a2                	ld	s1,8(sp)
    800009d2:	6105                	addi	sp,sp,32
    800009d4:	8082                	ret

00000000800009d6 <kfree>:
// which normally should have been returned by a
// call to kalloc().  (The exception is when
// initializing the allocator; see kinit above.)
void
kfree(void *pa)
{
    800009d6:	1101                	addi	sp,sp,-32
    800009d8:	ec06                	sd	ra,24(sp)
    800009da:	e822                	sd	s0,16(sp)
    800009dc:	e426                	sd	s1,8(sp)
    800009de:	e04a                	sd	s2,0(sp)
    800009e0:	1000                	addi	s0,sp,32
  struct run *r;

  if((char*)pa < end)
    800009e2:	0002e797          	auipc	a5,0x2e
    800009e6:	61e78793          	addi	a5,a5,1566 # 8002f000 <end>
    800009ea:	04f56963          	bltu	a0,a5,80000a3c <kfree+0x66>
    800009ee:	84aa                	mv	s1,a0
    panic("kfree here");
  if(((uint64)pa % PGSIZE) != 0 || (char*)pa < end || (uint64)pa >= PHYSTOP)
    800009f0:	03451793          	slli	a5,a0,0x34
    800009f4:	efa1                	bnez	a5,80000a4c <kfree+0x76>
    800009f6:	47c5                	li	a5,17
    800009f8:	07ee                	slli	a5,a5,0x1b
    800009fa:	04f57963          	bgeu	a0,a5,80000a4c <kfree+0x76>
    panic("kfree hello");

  // Fill with junk to catch dangling refs.
  memset(pa, 1, PGSIZE);
    800009fe:	6605                	lui	a2,0x1
    80000a00:	4585                	li	a1,1
    80000a02:	00000097          	auipc	ra,0x0
    80000a06:	2cc080e7          	jalr	716(ra) # 80000cce <memset>

  r = (struct run*)pa;

  acquire(&kmem.lock);
    80000a0a:	00012917          	auipc	s2,0x12
    80000a0e:	87690913          	addi	s2,s2,-1930 # 80012280 <kmem>
    80000a12:	854a                	mv	a0,s2
    80000a14:	00000097          	auipc	ra,0x0
    80000a18:	1be080e7          	jalr	446(ra) # 80000bd2 <acquire>
  r->next = kmem.freelist;
    80000a1c:	01893783          	ld	a5,24(s2)
    80000a20:	e09c                	sd	a5,0(s1)
  kmem.freelist = r;
    80000a22:	00993c23          	sd	s1,24(s2)
  release(&kmem.lock);
    80000a26:	854a                	mv	a0,s2
    80000a28:	00000097          	auipc	ra,0x0
    80000a2c:	25e080e7          	jalr	606(ra) # 80000c86 <release>
}
    80000a30:	60e2                	ld	ra,24(sp)
    80000a32:	6442                	ld	s0,16(sp)
    80000a34:	64a2                	ld	s1,8(sp)
    80000a36:	6902                	ld	s2,0(sp)
    80000a38:	6105                	addi	sp,sp,32
    80000a3a:	8082                	ret
    panic("kfree here");
    80000a3c:	00008517          	auipc	a0,0x8
    80000a40:	62450513          	addi	a0,a0,1572 # 80009060 <digits+0x20>
    80000a44:	00000097          	auipc	ra,0x0
    80000a48:	ae6080e7          	jalr	-1306(ra) # 8000052a <panic>
    panic("kfree hello");
    80000a4c:	00008517          	auipc	a0,0x8
    80000a50:	62450513          	addi	a0,a0,1572 # 80009070 <digits+0x30>
    80000a54:	00000097          	auipc	ra,0x0
    80000a58:	ad6080e7          	jalr	-1322(ra) # 8000052a <panic>

0000000080000a5c <freerange>:
{
    80000a5c:	7179                	addi	sp,sp,-48
    80000a5e:	f406                	sd	ra,40(sp)
    80000a60:	f022                	sd	s0,32(sp)
    80000a62:	ec26                	sd	s1,24(sp)
    80000a64:	e84a                	sd	s2,16(sp)
    80000a66:	e44e                	sd	s3,8(sp)
    80000a68:	e052                	sd	s4,0(sp)
    80000a6a:	1800                	addi	s0,sp,48
  p = (char*)PGROUNDUP((uint64)pa_start);
    80000a6c:	6785                	lui	a5,0x1
    80000a6e:	fff78493          	addi	s1,a5,-1 # fff <_entry-0x7ffff001>
    80000a72:	94aa                	add	s1,s1,a0
    80000a74:	757d                	lui	a0,0xfffff
    80000a76:	8ce9                	and	s1,s1,a0
  for(; p + PGSIZE <= (char*)pa_end; p += PGSIZE)
    80000a78:	94be                	add	s1,s1,a5
    80000a7a:	0095ee63          	bltu	a1,s1,80000a96 <freerange+0x3a>
    80000a7e:	892e                	mv	s2,a1
    kfree(p);
    80000a80:	7a7d                	lui	s4,0xfffff
  for(; p + PGSIZE <= (char*)pa_end; p += PGSIZE)
    80000a82:	6985                	lui	s3,0x1
    kfree(p);
    80000a84:	01448533          	add	a0,s1,s4
    80000a88:	00000097          	auipc	ra,0x0
    80000a8c:	f4e080e7          	jalr	-178(ra) # 800009d6 <kfree>
  for(; p + PGSIZE <= (char*)pa_end; p += PGSIZE)
    80000a90:	94ce                	add	s1,s1,s3
    80000a92:	fe9979e3          	bgeu	s2,s1,80000a84 <freerange+0x28>
}
    80000a96:	70a2                	ld	ra,40(sp)
    80000a98:	7402                	ld	s0,32(sp)
    80000a9a:	64e2                	ld	s1,24(sp)
    80000a9c:	6942                	ld	s2,16(sp)
    80000a9e:	69a2                	ld	s3,8(sp)
    80000aa0:	6a02                	ld	s4,0(sp)
    80000aa2:	6145                	addi	sp,sp,48
    80000aa4:	8082                	ret

0000000080000aa6 <kinit>:
{
    80000aa6:	1141                	addi	sp,sp,-16
    80000aa8:	e406                	sd	ra,8(sp)
    80000aaa:	e022                	sd	s0,0(sp)
    80000aac:	0800                	addi	s0,sp,16
  initlock(&kmem.lock, "kmem");
    80000aae:	00008597          	auipc	a1,0x8
    80000ab2:	5d258593          	addi	a1,a1,1490 # 80009080 <digits+0x40>
    80000ab6:	00011517          	auipc	a0,0x11
    80000aba:	7ca50513          	addi	a0,a0,1994 # 80012280 <kmem>
    80000abe:	00000097          	auipc	ra,0x0
    80000ac2:	084080e7          	jalr	132(ra) # 80000b42 <initlock>
  freerange(end, (void*)PHYSTOP);
    80000ac6:	45c5                	li	a1,17
    80000ac8:	05ee                	slli	a1,a1,0x1b
    80000aca:	0002e517          	auipc	a0,0x2e
    80000ace:	53650513          	addi	a0,a0,1334 # 8002f000 <end>
    80000ad2:	00000097          	auipc	ra,0x0
    80000ad6:	f8a080e7          	jalr	-118(ra) # 80000a5c <freerange>
}
    80000ada:	60a2                	ld	ra,8(sp)
    80000adc:	6402                	ld	s0,0(sp)
    80000ade:	0141                	addi	sp,sp,16
    80000ae0:	8082                	ret

0000000080000ae2 <kalloc>:
// Allocate one 4096-byte page of physical memory.
// Returns a pointer that the kernel can use.
// Returns 0 if the memory cannot be allocated.
void *
kalloc(void)
{
    80000ae2:	1101                	addi	sp,sp,-32
    80000ae4:	ec06                	sd	ra,24(sp)
    80000ae6:	e822                	sd	s0,16(sp)
    80000ae8:	e426                	sd	s1,8(sp)
    80000aea:	1000                	addi	s0,sp,32
  struct run *r;

  acquire(&kmem.lock);
    80000aec:	00011497          	auipc	s1,0x11
    80000af0:	79448493          	addi	s1,s1,1940 # 80012280 <kmem>
    80000af4:	8526                	mv	a0,s1
    80000af6:	00000097          	auipc	ra,0x0
    80000afa:	0dc080e7          	jalr	220(ra) # 80000bd2 <acquire>
  r = kmem.freelist;
    80000afe:	6c84                	ld	s1,24(s1)
  if(r)
    80000b00:	c885                	beqz	s1,80000b30 <kalloc+0x4e>
    kmem.freelist = r->next;
    80000b02:	609c                	ld	a5,0(s1)
    80000b04:	00011517          	auipc	a0,0x11
    80000b08:	77c50513          	addi	a0,a0,1916 # 80012280 <kmem>
    80000b0c:	ed1c                	sd	a5,24(a0)
  release(&kmem.lock);
    80000b0e:	00000097          	auipc	ra,0x0
    80000b12:	178080e7          	jalr	376(ra) # 80000c86 <release>

  if(r)
    memset((char*)r, 5, PGSIZE); // fill with junk
    80000b16:	6605                	lui	a2,0x1
    80000b18:	4595                	li	a1,5
    80000b1a:	8526                	mv	a0,s1
    80000b1c:	00000097          	auipc	ra,0x0
    80000b20:	1b2080e7          	jalr	434(ra) # 80000cce <memset>
  return (void*)r;
}
    80000b24:	8526                	mv	a0,s1
    80000b26:	60e2                	ld	ra,24(sp)
    80000b28:	6442                	ld	s0,16(sp)
    80000b2a:	64a2                	ld	s1,8(sp)
    80000b2c:	6105                	addi	sp,sp,32
    80000b2e:	8082                	ret
  release(&kmem.lock);
    80000b30:	00011517          	auipc	a0,0x11
    80000b34:	75050513          	addi	a0,a0,1872 # 80012280 <kmem>
    80000b38:	00000097          	auipc	ra,0x0
    80000b3c:	14e080e7          	jalr	334(ra) # 80000c86 <release>
  if(r)
    80000b40:	b7d5                	j	80000b24 <kalloc+0x42>

0000000080000b42 <initlock>:
#include "proc.h"
#include "defs.h"

void
initlock(struct spinlock *lk, char *name)
{
    80000b42:	1141                	addi	sp,sp,-16
    80000b44:	e422                	sd	s0,8(sp)
    80000b46:	0800                	addi	s0,sp,16
  lk->name = name;
    80000b48:	e50c                	sd	a1,8(a0)
  lk->locked = 0;
    80000b4a:	00052023          	sw	zero,0(a0)
  lk->cpu = 0;
    80000b4e:	00053823          	sd	zero,16(a0)
}
    80000b52:	6422                	ld	s0,8(sp)
    80000b54:	0141                	addi	sp,sp,16
    80000b56:	8082                	ret

0000000080000b58 <holding>:
// Interrupts must be off.
int
holding(struct spinlock *lk)
{
  int r;
  r = (lk->locked && lk->cpu == mycpu());
    80000b58:	411c                	lw	a5,0(a0)
    80000b5a:	e399                	bnez	a5,80000b60 <holding+0x8>
    80000b5c:	4501                	li	a0,0
  return r;
}
    80000b5e:	8082                	ret
{
    80000b60:	1101                	addi	sp,sp,-32
    80000b62:	ec06                	sd	ra,24(sp)
    80000b64:	e822                	sd	s0,16(sp)
    80000b66:	e426                	sd	s1,8(sp)
    80000b68:	1000                	addi	s0,sp,32
  r = (lk->locked && lk->cpu == mycpu());
    80000b6a:	6904                	ld	s1,16(a0)
    80000b6c:	00002097          	auipc	ra,0x2
    80000b70:	852080e7          	jalr	-1966(ra) # 800023be <mycpu>
    80000b74:	40a48533          	sub	a0,s1,a0
    80000b78:	00153513          	seqz	a0,a0
}
    80000b7c:	60e2                	ld	ra,24(sp)
    80000b7e:	6442                	ld	s0,16(sp)
    80000b80:	64a2                	ld	s1,8(sp)
    80000b82:	6105                	addi	sp,sp,32
    80000b84:	8082                	ret

0000000080000b86 <push_off>:
// it takes two pop_off()s to undo two push_off()s.  Also, if interrupts
// are initially off, then push_off, pop_off leaves them off.

void
push_off(void)
{
    80000b86:	1101                	addi	sp,sp,-32
    80000b88:	ec06                	sd	ra,24(sp)
    80000b8a:	e822                	sd	s0,16(sp)
    80000b8c:	e426                	sd	s1,8(sp)
    80000b8e:	1000                	addi	s0,sp,32
  asm volatile("csrr %0, sstatus" : "=r" (x) );
    80000b90:	100024f3          	csrr	s1,sstatus
    80000b94:	100027f3          	csrr	a5,sstatus
  w_sstatus(r_sstatus() & ~SSTATUS_SIE);
    80000b98:	9bf5                	andi	a5,a5,-3
  asm volatile("csrw sstatus, %0" : : "r" (x));
    80000b9a:	10079073          	csrw	sstatus,a5
  int old = intr_get();

  intr_off();
  if(mycpu()->noff == 0)
    80000b9e:	00002097          	auipc	ra,0x2
    80000ba2:	820080e7          	jalr	-2016(ra) # 800023be <mycpu>
    80000ba6:	5d3c                	lw	a5,120(a0)
    80000ba8:	cf89                	beqz	a5,80000bc2 <push_off+0x3c>
    mycpu()->intena = old;
  mycpu()->noff += 1;
    80000baa:	00002097          	auipc	ra,0x2
    80000bae:	814080e7          	jalr	-2028(ra) # 800023be <mycpu>
    80000bb2:	5d3c                	lw	a5,120(a0)
    80000bb4:	2785                	addiw	a5,a5,1
    80000bb6:	dd3c                	sw	a5,120(a0)
}
    80000bb8:	60e2                	ld	ra,24(sp)
    80000bba:	6442                	ld	s0,16(sp)
    80000bbc:	64a2                	ld	s1,8(sp)
    80000bbe:	6105                	addi	sp,sp,32
    80000bc0:	8082                	ret
    mycpu()->intena = old;
    80000bc2:	00001097          	auipc	ra,0x1
    80000bc6:	7fc080e7          	jalr	2044(ra) # 800023be <mycpu>
  return (x & SSTATUS_SIE) != 0;
    80000bca:	8085                	srli	s1,s1,0x1
    80000bcc:	8885                	andi	s1,s1,1
    80000bce:	dd64                	sw	s1,124(a0)
    80000bd0:	bfe9                	j	80000baa <push_off+0x24>

0000000080000bd2 <acquire>:
{
    80000bd2:	1101                	addi	sp,sp,-32
    80000bd4:	ec06                	sd	ra,24(sp)
    80000bd6:	e822                	sd	s0,16(sp)
    80000bd8:	e426                	sd	s1,8(sp)
    80000bda:	1000                	addi	s0,sp,32
    80000bdc:	84aa                	mv	s1,a0
  push_off(); // disable interrupts to avoid deadlock.
    80000bde:	00000097          	auipc	ra,0x0
    80000be2:	fa8080e7          	jalr	-88(ra) # 80000b86 <push_off>
  if(holding(lk))
    80000be6:	8526                	mv	a0,s1
    80000be8:	00000097          	auipc	ra,0x0
    80000bec:	f70080e7          	jalr	-144(ra) # 80000b58 <holding>
  while(__sync_lock_test_and_set(&lk->locked, 1) != 0)
    80000bf0:	4705                	li	a4,1
  if(holding(lk))
    80000bf2:	e115                	bnez	a0,80000c16 <acquire+0x44>
  while(__sync_lock_test_and_set(&lk->locked, 1) != 0)
    80000bf4:	87ba                	mv	a5,a4
    80000bf6:	0cf4a7af          	amoswap.w.aq	a5,a5,(s1)
    80000bfa:	2781                	sext.w	a5,a5
    80000bfc:	ffe5                	bnez	a5,80000bf4 <acquire+0x22>
  __sync_synchronize();
    80000bfe:	0ff0000f          	fence
  lk->cpu = mycpu();
    80000c02:	00001097          	auipc	ra,0x1
    80000c06:	7bc080e7          	jalr	1980(ra) # 800023be <mycpu>
    80000c0a:	e888                	sd	a0,16(s1)
}
    80000c0c:	60e2                	ld	ra,24(sp)
    80000c0e:	6442                	ld	s0,16(sp)
    80000c10:	64a2                	ld	s1,8(sp)
    80000c12:	6105                	addi	sp,sp,32
    80000c14:	8082                	ret
    panic("acquire");
    80000c16:	00008517          	auipc	a0,0x8
    80000c1a:	47250513          	addi	a0,a0,1138 # 80009088 <digits+0x48>
    80000c1e:	00000097          	auipc	ra,0x0
    80000c22:	90c080e7          	jalr	-1780(ra) # 8000052a <panic>

0000000080000c26 <pop_off>:

void
pop_off(void)
{
    80000c26:	1141                	addi	sp,sp,-16
    80000c28:	e406                	sd	ra,8(sp)
    80000c2a:	e022                	sd	s0,0(sp)
    80000c2c:	0800                	addi	s0,sp,16
  struct cpu *c = mycpu();
    80000c2e:	00001097          	auipc	ra,0x1
    80000c32:	790080e7          	jalr	1936(ra) # 800023be <mycpu>
  asm volatile("csrr %0, sstatus" : "=r" (x) );
    80000c36:	100027f3          	csrr	a5,sstatus
  return (x & SSTATUS_SIE) != 0;
    80000c3a:	8b89                	andi	a5,a5,2
  if(intr_get())
    80000c3c:	e78d                	bnez	a5,80000c66 <pop_off+0x40>
    panic("pop_off - interruptible");
  if(c->noff < 1)
    80000c3e:	5d3c                	lw	a5,120(a0)
    80000c40:	02f05b63          	blez	a5,80000c76 <pop_off+0x50>
    panic("pop_off");
  c->noff -= 1;
    80000c44:	37fd                	addiw	a5,a5,-1
    80000c46:	0007871b          	sext.w	a4,a5
    80000c4a:	dd3c                	sw	a5,120(a0)
  if(c->noff == 0 && c->intena)
    80000c4c:	eb09                	bnez	a4,80000c5e <pop_off+0x38>
    80000c4e:	5d7c                	lw	a5,124(a0)
    80000c50:	c799                	beqz	a5,80000c5e <pop_off+0x38>
  asm volatile("csrr %0, sstatus" : "=r" (x) );
    80000c52:	100027f3          	csrr	a5,sstatus
  w_sstatus(r_sstatus() | SSTATUS_SIE);
    80000c56:	0027e793          	ori	a5,a5,2
  asm volatile("csrw sstatus, %0" : : "r" (x));
    80000c5a:	10079073          	csrw	sstatus,a5
    intr_on();
}
    80000c5e:	60a2                	ld	ra,8(sp)
    80000c60:	6402                	ld	s0,0(sp)
    80000c62:	0141                	addi	sp,sp,16
    80000c64:	8082                	ret
    panic("pop_off - interruptible");
    80000c66:	00008517          	auipc	a0,0x8
    80000c6a:	42a50513          	addi	a0,a0,1066 # 80009090 <digits+0x50>
    80000c6e:	00000097          	auipc	ra,0x0
    80000c72:	8bc080e7          	jalr	-1860(ra) # 8000052a <panic>
    panic("pop_off");
    80000c76:	00008517          	auipc	a0,0x8
    80000c7a:	43250513          	addi	a0,a0,1074 # 800090a8 <digits+0x68>
    80000c7e:	00000097          	auipc	ra,0x0
    80000c82:	8ac080e7          	jalr	-1876(ra) # 8000052a <panic>

0000000080000c86 <release>:
{
    80000c86:	1101                	addi	sp,sp,-32
    80000c88:	ec06                	sd	ra,24(sp)
    80000c8a:	e822                	sd	s0,16(sp)
    80000c8c:	e426                	sd	s1,8(sp)
    80000c8e:	1000                	addi	s0,sp,32
    80000c90:	84aa                	mv	s1,a0
  if(!holding(lk))
    80000c92:	00000097          	auipc	ra,0x0
    80000c96:	ec6080e7          	jalr	-314(ra) # 80000b58 <holding>
    80000c9a:	c115                	beqz	a0,80000cbe <release+0x38>
  lk->cpu = 0;
    80000c9c:	0004b823          	sd	zero,16(s1)
  __sync_synchronize();
    80000ca0:	0ff0000f          	fence
  __sync_lock_release(&lk->locked);
    80000ca4:	0f50000f          	fence	iorw,ow
    80000ca8:	0804a02f          	amoswap.w	zero,zero,(s1)
  pop_off();
    80000cac:	00000097          	auipc	ra,0x0
    80000cb0:	f7a080e7          	jalr	-134(ra) # 80000c26 <pop_off>
}
    80000cb4:	60e2                	ld	ra,24(sp)
    80000cb6:	6442                	ld	s0,16(sp)
    80000cb8:	64a2                	ld	s1,8(sp)
    80000cba:	6105                	addi	sp,sp,32
    80000cbc:	8082                	ret
    panic("release");
    80000cbe:	00008517          	auipc	a0,0x8
    80000cc2:	3f250513          	addi	a0,a0,1010 # 800090b0 <digits+0x70>
    80000cc6:	00000097          	auipc	ra,0x0
    80000cca:	864080e7          	jalr	-1948(ra) # 8000052a <panic>

0000000080000cce <memset>:
#include "types.h"

void*
memset(void *dst, int c, uint n)
{
    80000cce:	1141                	addi	sp,sp,-16
    80000cd0:	e422                	sd	s0,8(sp)
    80000cd2:	0800                	addi	s0,sp,16
  char *cdst = (char *) dst;
  int i;
  for(i = 0; i < n; i++){
    80000cd4:	ca19                	beqz	a2,80000cea <memset+0x1c>
    80000cd6:	87aa                	mv	a5,a0
    80000cd8:	1602                	slli	a2,a2,0x20
    80000cda:	9201                	srli	a2,a2,0x20
    80000cdc:	00a60733          	add	a4,a2,a0
    cdst[i] = c;
    80000ce0:	00b78023          	sb	a1,0(a5)
  for(i = 0; i < n; i++){
    80000ce4:	0785                	addi	a5,a5,1
    80000ce6:	fee79de3          	bne	a5,a4,80000ce0 <memset+0x12>
  }
  return dst;
}
    80000cea:	6422                	ld	s0,8(sp)
    80000cec:	0141                	addi	sp,sp,16
    80000cee:	8082                	ret

0000000080000cf0 <memcmp>:

int
memcmp(const void *v1, const void *v2, uint n)
{
    80000cf0:	1141                	addi	sp,sp,-16
    80000cf2:	e422                	sd	s0,8(sp)
    80000cf4:	0800                	addi	s0,sp,16
  const uchar *s1, *s2;

  s1 = v1;
  s2 = v2;
  while(n-- > 0){
    80000cf6:	ca05                	beqz	a2,80000d26 <memcmp+0x36>
    80000cf8:	fff6069b          	addiw	a3,a2,-1
    80000cfc:	1682                	slli	a3,a3,0x20
    80000cfe:	9281                	srli	a3,a3,0x20
    80000d00:	0685                	addi	a3,a3,1
    80000d02:	96aa                	add	a3,a3,a0
    if(*s1 != *s2)
    80000d04:	00054783          	lbu	a5,0(a0)
    80000d08:	0005c703          	lbu	a4,0(a1)
    80000d0c:	00e79863          	bne	a5,a4,80000d1c <memcmp+0x2c>
      return *s1 - *s2;
    s1++, s2++;
    80000d10:	0505                	addi	a0,a0,1
    80000d12:	0585                	addi	a1,a1,1
  while(n-- > 0){
    80000d14:	fed518e3          	bne	a0,a3,80000d04 <memcmp+0x14>
  }

  return 0;
    80000d18:	4501                	li	a0,0
    80000d1a:	a019                	j	80000d20 <memcmp+0x30>
      return *s1 - *s2;
    80000d1c:	40e7853b          	subw	a0,a5,a4
}
    80000d20:	6422                	ld	s0,8(sp)
    80000d22:	0141                	addi	sp,sp,16
    80000d24:	8082                	ret
  return 0;
    80000d26:	4501                	li	a0,0
    80000d28:	bfe5                	j	80000d20 <memcmp+0x30>

0000000080000d2a <memmove>:

void*
memmove(void *dst, const void *src, uint n)
{
    80000d2a:	1141                	addi	sp,sp,-16
    80000d2c:	e422                	sd	s0,8(sp)
    80000d2e:	0800                	addi	s0,sp,16
  const char *s;
  char *d;

  s = src;
  d = dst;
  if(s < d && s + n > d){
    80000d30:	02a5e563          	bltu	a1,a0,80000d5a <memmove+0x30>
    s += n;
    d += n;
    while(n-- > 0)
      *--d = *--s;
  } else
    while(n-- > 0)
    80000d34:	fff6069b          	addiw	a3,a2,-1
    80000d38:	ce11                	beqz	a2,80000d54 <memmove+0x2a>
    80000d3a:	1682                	slli	a3,a3,0x20
    80000d3c:	9281                	srli	a3,a3,0x20
    80000d3e:	0685                	addi	a3,a3,1
    80000d40:	96ae                	add	a3,a3,a1
    80000d42:	87aa                	mv	a5,a0
      *d++ = *s++;
    80000d44:	0585                	addi	a1,a1,1
    80000d46:	0785                	addi	a5,a5,1
    80000d48:	fff5c703          	lbu	a4,-1(a1)
    80000d4c:	fee78fa3          	sb	a4,-1(a5)
    while(n-- > 0)
    80000d50:	fed59ae3          	bne	a1,a3,80000d44 <memmove+0x1a>

  return dst;
}
    80000d54:	6422                	ld	s0,8(sp)
    80000d56:	0141                	addi	sp,sp,16
    80000d58:	8082                	ret
  if(s < d && s + n > d){
    80000d5a:	02061713          	slli	a4,a2,0x20
    80000d5e:	9301                	srli	a4,a4,0x20
    80000d60:	00e587b3          	add	a5,a1,a4
    80000d64:	fcf578e3          	bgeu	a0,a5,80000d34 <memmove+0xa>
    d += n;
    80000d68:	972a                	add	a4,a4,a0
    while(n-- > 0)
    80000d6a:	fff6069b          	addiw	a3,a2,-1
    80000d6e:	d27d                	beqz	a2,80000d54 <memmove+0x2a>
    80000d70:	02069613          	slli	a2,a3,0x20
    80000d74:	9201                	srli	a2,a2,0x20
    80000d76:	fff64613          	not	a2,a2
    80000d7a:	963e                	add	a2,a2,a5
      *--d = *--s;
    80000d7c:	17fd                	addi	a5,a5,-1
    80000d7e:	177d                	addi	a4,a4,-1
    80000d80:	0007c683          	lbu	a3,0(a5)
    80000d84:	00d70023          	sb	a3,0(a4)
    while(n-- > 0)
    80000d88:	fef61ae3          	bne	a2,a5,80000d7c <memmove+0x52>
    80000d8c:	b7e1                	j	80000d54 <memmove+0x2a>

0000000080000d8e <memcpy>:

// memcpy exists to placate GCC.  Use memmove.
void*
memcpy(void *dst, const void *src, uint n)
{
    80000d8e:	1141                	addi	sp,sp,-16
    80000d90:	e406                	sd	ra,8(sp)
    80000d92:	e022                	sd	s0,0(sp)
    80000d94:	0800                	addi	s0,sp,16
  return memmove(dst, src, n);
    80000d96:	00000097          	auipc	ra,0x0
    80000d9a:	f94080e7          	jalr	-108(ra) # 80000d2a <memmove>
}
    80000d9e:	60a2                	ld	ra,8(sp)
    80000da0:	6402                	ld	s0,0(sp)
    80000da2:	0141                	addi	sp,sp,16
    80000da4:	8082                	ret

0000000080000da6 <strncmp>:

int
strncmp(const char *p, const char *q, uint n)
{
    80000da6:	1141                	addi	sp,sp,-16
    80000da8:	e422                	sd	s0,8(sp)
    80000daa:	0800                	addi	s0,sp,16
  while(n > 0 && *p && *p == *q)
    80000dac:	ce11                	beqz	a2,80000dc8 <strncmp+0x22>
    80000dae:	00054783          	lbu	a5,0(a0)
    80000db2:	cf89                	beqz	a5,80000dcc <strncmp+0x26>
    80000db4:	0005c703          	lbu	a4,0(a1)
    80000db8:	00f71a63          	bne	a4,a5,80000dcc <strncmp+0x26>
    n--, p++, q++;
    80000dbc:	367d                	addiw	a2,a2,-1
    80000dbe:	0505                	addi	a0,a0,1
    80000dc0:	0585                	addi	a1,a1,1
  while(n > 0 && *p && *p == *q)
    80000dc2:	f675                	bnez	a2,80000dae <strncmp+0x8>
  if(n == 0)
    return 0;
    80000dc4:	4501                	li	a0,0
    80000dc6:	a809                	j	80000dd8 <strncmp+0x32>
    80000dc8:	4501                	li	a0,0
    80000dca:	a039                	j	80000dd8 <strncmp+0x32>
  if(n == 0)
    80000dcc:	ca09                	beqz	a2,80000dde <strncmp+0x38>
  return (uchar)*p - (uchar)*q;
    80000dce:	00054503          	lbu	a0,0(a0)
    80000dd2:	0005c783          	lbu	a5,0(a1)
    80000dd6:	9d1d                	subw	a0,a0,a5
}
    80000dd8:	6422                	ld	s0,8(sp)
    80000dda:	0141                	addi	sp,sp,16
    80000ddc:	8082                	ret
    return 0;
    80000dde:	4501                	li	a0,0
    80000de0:	bfe5                	j	80000dd8 <strncmp+0x32>

0000000080000de2 <strncpy>:

char*
strncpy(char *s, const char *t, int n)
{
    80000de2:	1141                	addi	sp,sp,-16
    80000de4:	e422                	sd	s0,8(sp)
    80000de6:	0800                	addi	s0,sp,16
  char *os;

  os = s;
  while(n-- > 0 && (*s++ = *t++) != 0)
    80000de8:	872a                	mv	a4,a0
    80000dea:	8832                	mv	a6,a2
    80000dec:	367d                	addiw	a2,a2,-1
    80000dee:	01005963          	blez	a6,80000e00 <strncpy+0x1e>
    80000df2:	0705                	addi	a4,a4,1
    80000df4:	0005c783          	lbu	a5,0(a1)
    80000df8:	fef70fa3          	sb	a5,-1(a4)
    80000dfc:	0585                	addi	a1,a1,1
    80000dfe:	f7f5                	bnez	a5,80000dea <strncpy+0x8>
    ;
  while(n-- > 0)
    80000e00:	86ba                	mv	a3,a4
    80000e02:	00c05c63          	blez	a2,80000e1a <strncpy+0x38>
    *s++ = 0;
    80000e06:	0685                	addi	a3,a3,1
    80000e08:	fe068fa3          	sb	zero,-1(a3)
  while(n-- > 0)
    80000e0c:	fff6c793          	not	a5,a3
    80000e10:	9fb9                	addw	a5,a5,a4
    80000e12:	010787bb          	addw	a5,a5,a6
    80000e16:	fef048e3          	bgtz	a5,80000e06 <strncpy+0x24>
  return os;
}
    80000e1a:	6422                	ld	s0,8(sp)
    80000e1c:	0141                	addi	sp,sp,16
    80000e1e:	8082                	ret

0000000080000e20 <safestrcpy>:

// Like strncpy but guaranteed to NUL-terminate.
char*
safestrcpy(char *s, const char *t, int n)
{
    80000e20:	1141                	addi	sp,sp,-16
    80000e22:	e422                	sd	s0,8(sp)
    80000e24:	0800                	addi	s0,sp,16
  char *os;

  os = s;
  if(n <= 0)
    80000e26:	02c05363          	blez	a2,80000e4c <safestrcpy+0x2c>
    80000e2a:	fff6069b          	addiw	a3,a2,-1
    80000e2e:	1682                	slli	a3,a3,0x20
    80000e30:	9281                	srli	a3,a3,0x20
    80000e32:	96ae                	add	a3,a3,a1
    80000e34:	87aa                	mv	a5,a0
    return os;
  while(--n > 0 && (*s++ = *t++) != 0)
    80000e36:	00d58963          	beq	a1,a3,80000e48 <safestrcpy+0x28>
    80000e3a:	0585                	addi	a1,a1,1
    80000e3c:	0785                	addi	a5,a5,1
    80000e3e:	fff5c703          	lbu	a4,-1(a1)
    80000e42:	fee78fa3          	sb	a4,-1(a5)
    80000e46:	fb65                	bnez	a4,80000e36 <safestrcpy+0x16>
    ;
  *s = 0;
    80000e48:	00078023          	sb	zero,0(a5)
  return os;
}
    80000e4c:	6422                	ld	s0,8(sp)
    80000e4e:	0141                	addi	sp,sp,16
    80000e50:	8082                	ret

0000000080000e52 <strlen>:

int
strlen(const char *s)
{
    80000e52:	1141                	addi	sp,sp,-16
    80000e54:	e422                	sd	s0,8(sp)
    80000e56:	0800                	addi	s0,sp,16
  int n;

  for(n = 0; s[n]; n++)
    80000e58:	00054783          	lbu	a5,0(a0)
    80000e5c:	cf91                	beqz	a5,80000e78 <strlen+0x26>
    80000e5e:	0505                	addi	a0,a0,1
    80000e60:	87aa                	mv	a5,a0
    80000e62:	4685                	li	a3,1
    80000e64:	9e89                	subw	a3,a3,a0
    80000e66:	00f6853b          	addw	a0,a3,a5
    80000e6a:	0785                	addi	a5,a5,1
    80000e6c:	fff7c703          	lbu	a4,-1(a5)
    80000e70:	fb7d                	bnez	a4,80000e66 <strlen+0x14>
    ;
  return n;
}
    80000e72:	6422                	ld	s0,8(sp)
    80000e74:	0141                	addi	sp,sp,16
    80000e76:	8082                	ret
  for(n = 0; s[n]; n++)
    80000e78:	4501                	li	a0,0
    80000e7a:	bfe5                	j	80000e72 <strlen+0x20>

0000000080000e7c <main>:
volatile static int started = 0;

// start() jumps here in supervisor mode on all CPUs.
void
main()
{
    80000e7c:	1141                	addi	sp,sp,-16
    80000e7e:	e406                	sd	ra,8(sp)
    80000e80:	e022                	sd	s0,0(sp)
    80000e82:	0800                	addi	s0,sp,16
  if(cpuid() == 0){
    80000e84:	00001097          	auipc	ra,0x1
    80000e88:	52a080e7          	jalr	1322(ra) # 800023ae <cpuid>
    virtio_disk_init(); // emulated hard disk
    userinit();      // first user process
    __sync_synchronize();
    started = 1;
  } else {
    while(started == 0)
    80000e8c:	00009717          	auipc	a4,0x9
    80000e90:	18c70713          	addi	a4,a4,396 # 8000a018 <started>
  if(cpuid() == 0){
    80000e94:	c139                	beqz	a0,80000eda <main+0x5e>
    while(started == 0)
    80000e96:	431c                	lw	a5,0(a4)
    80000e98:	2781                	sext.w	a5,a5
    80000e9a:	dff5                	beqz	a5,80000e96 <main+0x1a>
      ;
    __sync_synchronize();
    80000e9c:	0ff0000f          	fence
    printf("hart %d starting\n", cpuid());
    80000ea0:	00001097          	auipc	ra,0x1
    80000ea4:	50e080e7          	jalr	1294(ra) # 800023ae <cpuid>
    80000ea8:	85aa                	mv	a1,a0
    80000eaa:	00008517          	auipc	a0,0x8
    80000eae:	22650513          	addi	a0,a0,550 # 800090d0 <digits+0x90>
    80000eb2:	fffff097          	auipc	ra,0xfffff
    80000eb6:	6c2080e7          	jalr	1730(ra) # 80000574 <printf>
    kvminithart();    // turn on paging
    80000eba:	00000097          	auipc	ra,0x0
    80000ebe:	0d8080e7          	jalr	216(ra) # 80000f92 <kvminithart>
    trapinithart();   // install kernel trap vector
    80000ec2:	00002097          	auipc	ra,0x2
    80000ec6:	368080e7          	jalr	872(ra) # 8000322a <trapinithart>
    plicinithart();   // ask PLIC for device interrupts
    80000eca:	00006097          	auipc	ra,0x6
    80000ece:	e46080e7          	jalr	-442(ra) # 80006d10 <plicinithart>
  }

  scheduler();        
    80000ed2:	00002097          	auipc	ra,0x2
    80000ed6:	bf6080e7          	jalr	-1034(ra) # 80002ac8 <scheduler>
    consoleinit();
    80000eda:	fffff097          	auipc	ra,0xfffff
    80000ede:	562080e7          	jalr	1378(ra) # 8000043c <consoleinit>
    printfinit();
    80000ee2:	00000097          	auipc	ra,0x0
    80000ee6:	872080e7          	jalr	-1934(ra) # 80000754 <printfinit>
    printf("\n");
    80000eea:	00008517          	auipc	a0,0x8
    80000eee:	34e50513          	addi	a0,a0,846 # 80009238 <digits+0x1f8>
    80000ef2:	fffff097          	auipc	ra,0xfffff
    80000ef6:	682080e7          	jalr	1666(ra) # 80000574 <printf>
    printf("xv6 kernel is booting\n");
    80000efa:	00008517          	auipc	a0,0x8
    80000efe:	1be50513          	addi	a0,a0,446 # 800090b8 <digits+0x78>
    80000f02:	fffff097          	auipc	ra,0xfffff
    80000f06:	672080e7          	jalr	1650(ra) # 80000574 <printf>
    printf("\n");
    80000f0a:	00008517          	auipc	a0,0x8
    80000f0e:	32e50513          	addi	a0,a0,814 # 80009238 <digits+0x1f8>
    80000f12:	fffff097          	auipc	ra,0xfffff
    80000f16:	662080e7          	jalr	1634(ra) # 80000574 <printf>
    kinit();         // physical page allocator
    80000f1a:	00000097          	auipc	ra,0x0
    80000f1e:	b8c080e7          	jalr	-1140(ra) # 80000aa6 <kinit>
    kvminit();       // create kernel page table
    80000f22:	00000097          	auipc	ra,0x0
    80000f26:	2fa080e7          	jalr	762(ra) # 8000121c <kvminit>
    kvminithart();   // turn on paging
    80000f2a:	00000097          	auipc	ra,0x0
    80000f2e:	068080e7          	jalr	104(ra) # 80000f92 <kvminithart>
    procinit();      // process table
    80000f32:	00001097          	auipc	ra,0x1
    80000f36:	3cc080e7          	jalr	972(ra) # 800022fe <procinit>
    trapinit();      // trap vectors
    80000f3a:	00002097          	auipc	ra,0x2
    80000f3e:	2c8080e7          	jalr	712(ra) # 80003202 <trapinit>
    trapinithart();  // install kernel trap vector
    80000f42:	00002097          	auipc	ra,0x2
    80000f46:	2e8080e7          	jalr	744(ra) # 8000322a <trapinithart>
    plicinit();      // set up interrupt controller
    80000f4a:	00006097          	auipc	ra,0x6
    80000f4e:	db0080e7          	jalr	-592(ra) # 80006cfa <plicinit>
    plicinithart();  // ask PLIC for device interrupts
    80000f52:	00006097          	auipc	ra,0x6
    80000f56:	dbe080e7          	jalr	-578(ra) # 80006d10 <plicinithart>
    binit();         // buffer cache
    80000f5a:	00003097          	auipc	ra,0x3
    80000f5e:	a2e080e7          	jalr	-1490(ra) # 80003988 <binit>
    iinit();         // inode cache
    80000f62:	00003097          	auipc	ra,0x3
    80000f66:	0c0080e7          	jalr	192(ra) # 80004022 <iinit>
    fileinit();      // file table
    80000f6a:	00004097          	auipc	ra,0x4
    80000f6e:	39e080e7          	jalr	926(ra) # 80005308 <fileinit>
    virtio_disk_init(); // emulated hard disk
    80000f72:	00006097          	auipc	ra,0x6
    80000f76:	ec0080e7          	jalr	-320(ra) # 80006e32 <virtio_disk_init>
    userinit();      // first user process
    80000f7a:	00001097          	auipc	ra,0x1
    80000f7e:	774080e7          	jalr	1908(ra) # 800026ee <userinit>
    __sync_synchronize();
    80000f82:	0ff0000f          	fence
    started = 1;
    80000f86:	4785                	li	a5,1
    80000f88:	00009717          	auipc	a4,0x9
    80000f8c:	08f72823          	sw	a5,144(a4) # 8000a018 <started>
    80000f90:	b789                	j	80000ed2 <main+0x56>

0000000080000f92 <kvminithart>:

// Switch h/w page table register to the kernel's page table,
// and enable paging.
void
kvminithart()
{
    80000f92:	1141                	addi	sp,sp,-16
    80000f94:	e422                	sd	s0,8(sp)
    80000f96:	0800                	addi	s0,sp,16
  w_satp(MAKE_SATP(kernel_pagetable));
    80000f98:	00009797          	auipc	a5,0x9
    80000f9c:	0887b783          	ld	a5,136(a5) # 8000a020 <kernel_pagetable>
    80000fa0:	83b1                	srli	a5,a5,0xc
    80000fa2:	577d                	li	a4,-1
    80000fa4:	177e                	slli	a4,a4,0x3f
    80000fa6:	8fd9                	or	a5,a5,a4
  asm volatile("csrw satp, %0" : : "r" (x));
    80000fa8:	18079073          	csrw	satp,a5
// flush the TLB.
static inline void
sfence_vma()
{
  // the zero, zero means flush all TLB entries.
  asm volatile("sfence.vma zero, zero");
    80000fac:	12000073          	sfence.vma
  sfence_vma();
}
    80000fb0:	6422                	ld	s0,8(sp)
    80000fb2:	0141                	addi	sp,sp,16
    80000fb4:	8082                	ret

0000000080000fb6 <walk>:
//   21..29 -- 9 bits of level-1 index.
//   12..20 -- 9 bits of level-0 index.
//    0..11 -- 12 bits of byte offset within the page.
pte_t *
walk(pagetable_t pagetable, uint64 va, int alloc)
{
    80000fb6:	7139                	addi	sp,sp,-64
    80000fb8:	fc06                	sd	ra,56(sp)
    80000fba:	f822                	sd	s0,48(sp)
    80000fbc:	f426                	sd	s1,40(sp)
    80000fbe:	f04a                	sd	s2,32(sp)
    80000fc0:	ec4e                	sd	s3,24(sp)
    80000fc2:	e852                	sd	s4,16(sp)
    80000fc4:	e456                	sd	s5,8(sp)
    80000fc6:	e05a                	sd	s6,0(sp)
    80000fc8:	0080                	addi	s0,sp,64
    80000fca:	84aa                	mv	s1,a0
    80000fcc:	89ae                	mv	s3,a1
    80000fce:	8ab2                	mv	s5,a2
    80000fd0:	4a79                	li	s4,30
  //if(va >= MAXVA)
    //panic("walk");

  for(int level = 2; level > 0; level--) {
    80000fd2:	4b31                	li	s6,12
    80000fd4:	a80d                	j	80001006 <walk+0x50>
    pte_t *pte = &pagetable[PX(level, va)];
    if(*pte & PTE_V) {
      pagetable = (pagetable_t)PTE2PA(*pte);
    } else {
      if(!alloc || (pagetable = (pde_t*)kalloc()) == 0)
    80000fd6:	060a8663          	beqz	s5,80001042 <walk+0x8c>
    80000fda:	00000097          	auipc	ra,0x0
    80000fde:	b08080e7          	jalr	-1272(ra) # 80000ae2 <kalloc>
    80000fe2:	84aa                	mv	s1,a0
    80000fe4:	c529                	beqz	a0,8000102e <walk+0x78>
        return 0;
      memset(pagetable, 0, PGSIZE);
    80000fe6:	6605                	lui	a2,0x1
    80000fe8:	4581                	li	a1,0
    80000fea:	00000097          	auipc	ra,0x0
    80000fee:	ce4080e7          	jalr	-796(ra) # 80000cce <memset>
      *pte = PA2PTE(pagetable) | PTE_V;
    80000ff2:	00c4d793          	srli	a5,s1,0xc
    80000ff6:	07aa                	slli	a5,a5,0xa
    80000ff8:	0017e793          	ori	a5,a5,1
    80000ffc:	00f93023          	sd	a5,0(s2)
  for(int level = 2; level > 0; level--) {
    80001000:	3a5d                	addiw	s4,s4,-9
    80001002:	036a0063          	beq	s4,s6,80001022 <walk+0x6c>
    pte_t *pte = &pagetable[PX(level, va)];
    80001006:	0149d933          	srl	s2,s3,s4
    8000100a:	1ff97913          	andi	s2,s2,511
    8000100e:	090e                	slli	s2,s2,0x3
    80001010:	9926                	add	s2,s2,s1
    if(*pte & PTE_V) {
    80001012:	00093483          	ld	s1,0(s2)
    80001016:	0014f793          	andi	a5,s1,1
    8000101a:	dfd5                	beqz	a5,80000fd6 <walk+0x20>
      pagetable = (pagetable_t)PTE2PA(*pte);
    8000101c:	80a9                	srli	s1,s1,0xa
    8000101e:	04b2                	slli	s1,s1,0xc
    80001020:	b7c5                	j	80001000 <walk+0x4a>
    }
  }
  return &pagetable[PX(0, va)];
    80001022:	00c9d513          	srli	a0,s3,0xc
    80001026:	1ff57513          	andi	a0,a0,511
    8000102a:	050e                	slli	a0,a0,0x3
    8000102c:	9526                	add	a0,a0,s1
}
    8000102e:	70e2                	ld	ra,56(sp)
    80001030:	7442                	ld	s0,48(sp)
    80001032:	74a2                	ld	s1,40(sp)
    80001034:	7902                	ld	s2,32(sp)
    80001036:	69e2                	ld	s3,24(sp)
    80001038:	6a42                	ld	s4,16(sp)
    8000103a:	6aa2                	ld	s5,8(sp)
    8000103c:	6b02                	ld	s6,0(sp)
    8000103e:	6121                	addi	sp,sp,64
    80001040:	8082                	ret
        return 0;
    80001042:	4501                	li	a0,0
    80001044:	b7ed                	j	8000102e <walk+0x78>

0000000080001046 <walkaddr>:
walkaddr(pagetable_t pagetable, uint64 va)
{
  pte_t *pte;
  uint64 pa;

  if(va >= MAXVA)
    80001046:	57fd                	li	a5,-1
    80001048:	83e9                	srli	a5,a5,0x1a
    8000104a:	00b7f463          	bgeu	a5,a1,80001052 <walkaddr+0xc>
    return 0;
    8000104e:	4501                	li	a0,0
    return 0;
  if((*pte & PTE_U) == 0)
    return 0;
  pa = PTE2PA(*pte);
  return pa;
}
    80001050:	8082                	ret
{
    80001052:	1141                	addi	sp,sp,-16
    80001054:	e406                	sd	ra,8(sp)
    80001056:	e022                	sd	s0,0(sp)
    80001058:	0800                	addi	s0,sp,16
  pte = walk(pagetable, va, 0);
    8000105a:	4601                	li	a2,0
    8000105c:	00000097          	auipc	ra,0x0
    80001060:	f5a080e7          	jalr	-166(ra) # 80000fb6 <walk>
  if(pte == 0)
    80001064:	c105                	beqz	a0,80001084 <walkaddr+0x3e>
  if((*pte & PTE_V) == 0)
    80001066:	611c                	ld	a5,0(a0)
  if((*pte & PTE_U) == 0)
    80001068:	0117f693          	andi	a3,a5,17
    8000106c:	4745                	li	a4,17
    return 0;
    8000106e:	4501                	li	a0,0
  if((*pte & PTE_U) == 0)
    80001070:	00e68663          	beq	a3,a4,8000107c <walkaddr+0x36>
}
    80001074:	60a2                	ld	ra,8(sp)
    80001076:	6402                	ld	s0,0(sp)
    80001078:	0141                	addi	sp,sp,16
    8000107a:	8082                	ret
  pa = PTE2PA(*pte);
    8000107c:	00a7d513          	srli	a0,a5,0xa
    80001080:	0532                	slli	a0,a0,0xc
  return pa;
    80001082:	bfcd                	j	80001074 <walkaddr+0x2e>
    return 0;
    80001084:	4501                	li	a0,0
    80001086:	b7fd                	j	80001074 <walkaddr+0x2e>

0000000080001088 <mappages>:
// physical addresses starting at pa. va and size might not
// be page-aligned. Returns 0 on success, -1 if walk() couldn't
// allocate a needed page-table page.
int
mappages(pagetable_t pagetable, uint64 va, uint64 size, uint64 pa, int perm)
{
    80001088:	715d                	addi	sp,sp,-80
    8000108a:	e486                	sd	ra,72(sp)
    8000108c:	e0a2                	sd	s0,64(sp)
    8000108e:	fc26                	sd	s1,56(sp)
    80001090:	f84a                	sd	s2,48(sp)
    80001092:	f44e                	sd	s3,40(sp)
    80001094:	f052                	sd	s4,32(sp)
    80001096:	ec56                	sd	s5,24(sp)
    80001098:	e85a                	sd	s6,16(sp)
    8000109a:	e45e                	sd	s7,8(sp)
    8000109c:	0880                	addi	s0,sp,80
    8000109e:	8aaa                	mv	s5,a0
    800010a0:	8b3a                	mv	s6,a4
  uint64 a, last;
  pte_t *pte;

  a = PGROUNDDOWN(va);
    800010a2:	777d                	lui	a4,0xfffff
    800010a4:	00e5f7b3          	and	a5,a1,a4
  last = PGROUNDDOWN(va + size - 1);
    800010a8:	167d                	addi	a2,a2,-1
    800010aa:	00b609b3          	add	s3,a2,a1
    800010ae:	00e9f9b3          	and	s3,s3,a4
  a = PGROUNDDOWN(va);
    800010b2:	893e                	mv	s2,a5
    800010b4:	40f68a33          	sub	s4,a3,a5
    if(*pte & PTE_V)
      panic("remap");
    *pte = PA2PTE(pa) | perm | PTE_V;
    if(a == last)
      break;
    a += PGSIZE;
    800010b8:	6b85                	lui	s7,0x1
    800010ba:	012a04b3          	add	s1,s4,s2
    if((pte = walk(pagetable, a, 1)) == 0)
    800010be:	4605                	li	a2,1
    800010c0:	85ca                	mv	a1,s2
    800010c2:	8556                	mv	a0,s5
    800010c4:	00000097          	auipc	ra,0x0
    800010c8:	ef2080e7          	jalr	-270(ra) # 80000fb6 <walk>
    800010cc:	c51d                	beqz	a0,800010fa <mappages+0x72>
    if(*pte & PTE_V)
    800010ce:	611c                	ld	a5,0(a0)
    800010d0:	8b85                	andi	a5,a5,1
    800010d2:	ef81                	bnez	a5,800010ea <mappages+0x62>
    *pte = PA2PTE(pa) | perm | PTE_V;
    800010d4:	80b1                	srli	s1,s1,0xc
    800010d6:	04aa                	slli	s1,s1,0xa
    800010d8:	0164e4b3          	or	s1,s1,s6
    800010dc:	0014e493          	ori	s1,s1,1
    800010e0:	e104                	sd	s1,0(a0)
    if(a == last)
    800010e2:	03390863          	beq	s2,s3,80001112 <mappages+0x8a>
    a += PGSIZE;
    800010e6:	995e                	add	s2,s2,s7
    if((pte = walk(pagetable, a, 1)) == 0)
    800010e8:	bfc9                	j	800010ba <mappages+0x32>
      panic("remap");
    800010ea:	00008517          	auipc	a0,0x8
    800010ee:	ffe50513          	addi	a0,a0,-2 # 800090e8 <digits+0xa8>
    800010f2:	fffff097          	auipc	ra,0xfffff
    800010f6:	438080e7          	jalr	1080(ra) # 8000052a <panic>
      return -1;
    800010fa:	557d                	li	a0,-1
    pa += PGSIZE;
  }
  return 0;
}
    800010fc:	60a6                	ld	ra,72(sp)
    800010fe:	6406                	ld	s0,64(sp)
    80001100:	74e2                	ld	s1,56(sp)
    80001102:	7942                	ld	s2,48(sp)
    80001104:	79a2                	ld	s3,40(sp)
    80001106:	7a02                	ld	s4,32(sp)
    80001108:	6ae2                	ld	s5,24(sp)
    8000110a:	6b42                	ld	s6,16(sp)
    8000110c:	6ba2                	ld	s7,8(sp)
    8000110e:	6161                	addi	sp,sp,80
    80001110:	8082                	ret
  return 0;
    80001112:	4501                	li	a0,0
    80001114:	b7e5                	j	800010fc <mappages+0x74>

0000000080001116 <kvmmap>:
{
    80001116:	1141                	addi	sp,sp,-16
    80001118:	e406                	sd	ra,8(sp)
    8000111a:	e022                	sd	s0,0(sp)
    8000111c:	0800                	addi	s0,sp,16
    8000111e:	87b6                	mv	a5,a3
  if(mappages(kpgtbl, va, sz, pa, perm) != 0)
    80001120:	86b2                	mv	a3,a2
    80001122:	863e                	mv	a2,a5
    80001124:	00000097          	auipc	ra,0x0
    80001128:	f64080e7          	jalr	-156(ra) # 80001088 <mappages>
    8000112c:	e509                	bnez	a0,80001136 <kvmmap+0x20>
}
    8000112e:	60a2                	ld	ra,8(sp)
    80001130:	6402                	ld	s0,0(sp)
    80001132:	0141                	addi	sp,sp,16
    80001134:	8082                	ret
    panic("kvmmap");
    80001136:	00008517          	auipc	a0,0x8
    8000113a:	fba50513          	addi	a0,a0,-70 # 800090f0 <digits+0xb0>
    8000113e:	fffff097          	auipc	ra,0xfffff
    80001142:	3ec080e7          	jalr	1004(ra) # 8000052a <panic>

0000000080001146 <kvmmake>:
{
    80001146:	1101                	addi	sp,sp,-32
    80001148:	ec06                	sd	ra,24(sp)
    8000114a:	e822                	sd	s0,16(sp)
    8000114c:	e426                	sd	s1,8(sp)
    8000114e:	e04a                	sd	s2,0(sp)
    80001150:	1000                	addi	s0,sp,32
  kpgtbl = (pagetable_t) kalloc();
    80001152:	00000097          	auipc	ra,0x0
    80001156:	990080e7          	jalr	-1648(ra) # 80000ae2 <kalloc>
    8000115a:	84aa                	mv	s1,a0
  memset(kpgtbl, 0, PGSIZE);
    8000115c:	6605                	lui	a2,0x1
    8000115e:	4581                	li	a1,0
    80001160:	00000097          	auipc	ra,0x0
    80001164:	b6e080e7          	jalr	-1170(ra) # 80000cce <memset>
  kvmmap(kpgtbl, UART0, UART0, PGSIZE, PTE_R | PTE_W);
    80001168:	4719                	li	a4,6
    8000116a:	6685                	lui	a3,0x1
    8000116c:	10000637          	lui	a2,0x10000
    80001170:	100005b7          	lui	a1,0x10000
    80001174:	8526                	mv	a0,s1
    80001176:	00000097          	auipc	ra,0x0
    8000117a:	fa0080e7          	jalr	-96(ra) # 80001116 <kvmmap>
  kvmmap(kpgtbl, VIRTIO0, VIRTIO0, PGSIZE, PTE_R | PTE_W);
    8000117e:	4719                	li	a4,6
    80001180:	6685                	lui	a3,0x1
    80001182:	10001637          	lui	a2,0x10001
    80001186:	100015b7          	lui	a1,0x10001
    8000118a:	8526                	mv	a0,s1
    8000118c:	00000097          	auipc	ra,0x0
    80001190:	f8a080e7          	jalr	-118(ra) # 80001116 <kvmmap>
  kvmmap(kpgtbl, PLIC, PLIC, 0x400000, PTE_R | PTE_W);
    80001194:	4719                	li	a4,6
    80001196:	004006b7          	lui	a3,0x400
    8000119a:	0c000637          	lui	a2,0xc000
    8000119e:	0c0005b7          	lui	a1,0xc000
    800011a2:	8526                	mv	a0,s1
    800011a4:	00000097          	auipc	ra,0x0
    800011a8:	f72080e7          	jalr	-142(ra) # 80001116 <kvmmap>
  kvmmap(kpgtbl, KERNBASE, KERNBASE, (uint64)etext-KERNBASE, PTE_R | PTE_X);
    800011ac:	00008917          	auipc	s2,0x8
    800011b0:	e5490913          	addi	s2,s2,-428 # 80009000 <etext>
    800011b4:	4729                	li	a4,10
    800011b6:	80008697          	auipc	a3,0x80008
    800011ba:	e4a68693          	addi	a3,a3,-438 # 9000 <_entry-0x7fff7000>
    800011be:	4605                	li	a2,1
    800011c0:	067e                	slli	a2,a2,0x1f
    800011c2:	85b2                	mv	a1,a2
    800011c4:	8526                	mv	a0,s1
    800011c6:	00000097          	auipc	ra,0x0
    800011ca:	f50080e7          	jalr	-176(ra) # 80001116 <kvmmap>
  kvmmap(kpgtbl, (uint64)etext, (uint64)etext, PHYSTOP-(uint64)etext, PTE_R | PTE_W);
    800011ce:	4719                	li	a4,6
    800011d0:	46c5                	li	a3,17
    800011d2:	06ee                	slli	a3,a3,0x1b
    800011d4:	412686b3          	sub	a3,a3,s2
    800011d8:	864a                	mv	a2,s2
    800011da:	85ca                	mv	a1,s2
    800011dc:	8526                	mv	a0,s1
    800011de:	00000097          	auipc	ra,0x0
    800011e2:	f38080e7          	jalr	-200(ra) # 80001116 <kvmmap>
  kvmmap(kpgtbl, TRAMPOLINE, (uint64)trampoline, PGSIZE, PTE_R | PTE_X);
    800011e6:	4729                	li	a4,10
    800011e8:	6685                	lui	a3,0x1
    800011ea:	00007617          	auipc	a2,0x7
    800011ee:	e1660613          	addi	a2,a2,-490 # 80008000 <_trampoline>
    800011f2:	040005b7          	lui	a1,0x4000
    800011f6:	15fd                	addi	a1,a1,-1
    800011f8:	05b2                	slli	a1,a1,0xc
    800011fa:	8526                	mv	a0,s1
    800011fc:	00000097          	auipc	ra,0x0
    80001200:	f1a080e7          	jalr	-230(ra) # 80001116 <kvmmap>
  proc_mapstacks(kpgtbl);
    80001204:	8526                	mv	a0,s1
    80001206:	00001097          	auipc	ra,0x1
    8000120a:	062080e7          	jalr	98(ra) # 80002268 <proc_mapstacks>
}
    8000120e:	8526                	mv	a0,s1
    80001210:	60e2                	ld	ra,24(sp)
    80001212:	6442                	ld	s0,16(sp)
    80001214:	64a2                	ld	s1,8(sp)
    80001216:	6902                	ld	s2,0(sp)
    80001218:	6105                	addi	sp,sp,32
    8000121a:	8082                	ret

000000008000121c <kvminit>:
{
    8000121c:	1141                	addi	sp,sp,-16
    8000121e:	e406                	sd	ra,8(sp)
    80001220:	e022                	sd	s0,0(sp)
    80001222:	0800                	addi	s0,sp,16
  kernel_pagetable = kvmmake();
    80001224:	00000097          	auipc	ra,0x0
    80001228:	f22080e7          	jalr	-222(ra) # 80001146 <kvmmake>
    8000122c:	00009797          	auipc	a5,0x9
    80001230:	dea7ba23          	sd	a0,-524(a5) # 8000a020 <kernel_pagetable>
}
    80001234:	60a2                	ld	ra,8(sp)
    80001236:	6402                	ld	s0,0(sp)
    80001238:	0141                	addi	sp,sp,16
    8000123a:	8082                	ret

000000008000123c <origin_uvmunmap>:

// Remove npages of mappings starting from va. va must be
// page-aligned. The mappings must exist.
// Optionally free the physical memory.
void origin_uvmunmap(pagetable_t pagetable, uint64 va, uint64 npages, int do_free){
    8000123c:	715d                	addi	sp,sp,-80
    8000123e:	e486                	sd	ra,72(sp)
    80001240:	e0a2                	sd	s0,64(sp)
    80001242:	fc26                	sd	s1,56(sp)
    80001244:	f84a                	sd	s2,48(sp)
    80001246:	f44e                	sd	s3,40(sp)
    80001248:	f052                	sd	s4,32(sp)
    8000124a:	ec56                	sd	s5,24(sp)
    8000124c:	e85a                	sd	s6,16(sp)
    8000124e:	e45e                	sd	s7,8(sp)
    80001250:	0880                	addi	s0,sp,80
  uint64 a;
  pte_t *pte;

  if((va % PGSIZE) != 0)
    80001252:	03459793          	slli	a5,a1,0x34
    80001256:	e795                	bnez	a5,80001282 <origin_uvmunmap+0x46>
    80001258:	8a2a                	mv	s4,a0
    8000125a:	892e                	mv	s2,a1
    8000125c:	8ab6                	mv	s5,a3
    panic("uvmunmap: not aligned");

  for(a = va; a < va + npages*PGSIZE; a += PGSIZE){
    8000125e:	0632                	slli	a2,a2,0xc
    80001260:	00b609b3          	add	s3,a2,a1
    if((pte = walk(pagetable, a, 0)) == 0)
      panic("uvmunmap: walk");
    if((*pte & PTE_V) == 0)
      panic("uvmunmap: not mapped");
    if(PTE_FLAGS(*pte) == PTE_V)
    80001264:	4b85                	li	s7,1
  for(a = va; a < va + npages*PGSIZE; a += PGSIZE){
    80001266:	6b05                	lui	s6,0x1
    80001268:	0735e263          	bltu	a1,s3,800012cc <origin_uvmunmap+0x90>
      uint64 pa = PTE2PA(*pte);
      kfree((void*)pa);
    }
    *pte = 0;
    }
}
    8000126c:	60a6                	ld	ra,72(sp)
    8000126e:	6406                	ld	s0,64(sp)
    80001270:	74e2                	ld	s1,56(sp)
    80001272:	7942                	ld	s2,48(sp)
    80001274:	79a2                	ld	s3,40(sp)
    80001276:	7a02                	ld	s4,32(sp)
    80001278:	6ae2                	ld	s5,24(sp)
    8000127a:	6b42                	ld	s6,16(sp)
    8000127c:	6ba2                	ld	s7,8(sp)
    8000127e:	6161                	addi	sp,sp,80
    80001280:	8082                	ret
    panic("uvmunmap: not aligned");
    80001282:	00008517          	auipc	a0,0x8
    80001286:	e7650513          	addi	a0,a0,-394 # 800090f8 <digits+0xb8>
    8000128a:	fffff097          	auipc	ra,0xfffff
    8000128e:	2a0080e7          	jalr	672(ra) # 8000052a <panic>
      panic("uvmunmap: walk");
    80001292:	00008517          	auipc	a0,0x8
    80001296:	e7e50513          	addi	a0,a0,-386 # 80009110 <digits+0xd0>
    8000129a:	fffff097          	auipc	ra,0xfffff
    8000129e:	290080e7          	jalr	656(ra) # 8000052a <panic>
      panic("uvmunmap: not mapped");
    800012a2:	00008517          	auipc	a0,0x8
    800012a6:	e7e50513          	addi	a0,a0,-386 # 80009120 <digits+0xe0>
    800012aa:	fffff097          	auipc	ra,0xfffff
    800012ae:	280080e7          	jalr	640(ra) # 8000052a <panic>
      panic("uvmunmap: not a leaf");
    800012b2:	00008517          	auipc	a0,0x8
    800012b6:	e8650513          	addi	a0,a0,-378 # 80009138 <digits+0xf8>
    800012ba:	fffff097          	auipc	ra,0xfffff
    800012be:	270080e7          	jalr	624(ra) # 8000052a <panic>
    *pte = 0;
    800012c2:	0004b023          	sd	zero,0(s1)
  for(a = va; a < va + npages*PGSIZE; a += PGSIZE){
    800012c6:	995a                	add	s2,s2,s6
    800012c8:	fb3972e3          	bgeu	s2,s3,8000126c <origin_uvmunmap+0x30>
    if((pte = walk(pagetable, a, 0)) == 0)
    800012cc:	4601                	li	a2,0
    800012ce:	85ca                	mv	a1,s2
    800012d0:	8552                	mv	a0,s4
    800012d2:	00000097          	auipc	ra,0x0
    800012d6:	ce4080e7          	jalr	-796(ra) # 80000fb6 <walk>
    800012da:	84aa                	mv	s1,a0
    800012dc:	d95d                	beqz	a0,80001292 <origin_uvmunmap+0x56>
    if((*pte & PTE_V) == 0)
    800012de:	6108                	ld	a0,0(a0)
    800012e0:	00157793          	andi	a5,a0,1
    800012e4:	dfdd                	beqz	a5,800012a2 <origin_uvmunmap+0x66>
    if(PTE_FLAGS(*pte) == PTE_V)
    800012e6:	3ff57793          	andi	a5,a0,1023
    800012ea:	fd7784e3          	beq	a5,s7,800012b2 <origin_uvmunmap+0x76>
    if(do_free){
    800012ee:	fc0a8ae3          	beqz	s5,800012c2 <origin_uvmunmap+0x86>
      uint64 pa = PTE2PA(*pte);
    800012f2:	8129                	srli	a0,a0,0xa
      kfree((void*)pa);
    800012f4:	0532                	slli	a0,a0,0xc
    800012f6:	fffff097          	auipc	ra,0xfffff
    800012fa:	6e0080e7          	jalr	1760(ra) # 800009d6 <kfree>
    800012fe:	b7d1                	j	800012c2 <origin_uvmunmap+0x86>

0000000080001300 <uvmcreate>:

// create an empty user page table.
// returns 0 if out of memory.
pagetable_t
uvmcreate()
{
    80001300:	1101                	addi	sp,sp,-32
    80001302:	ec06                	sd	ra,24(sp)
    80001304:	e822                	sd	s0,16(sp)
    80001306:	e426                	sd	s1,8(sp)
    80001308:	1000                	addi	s0,sp,32
  pagetable_t pagetable;
  pagetable = (pagetable_t) kalloc();
    8000130a:	fffff097          	auipc	ra,0xfffff
    8000130e:	7d8080e7          	jalr	2008(ra) # 80000ae2 <kalloc>
    80001312:	84aa                	mv	s1,a0
  if(pagetable == 0)
    80001314:	c519                	beqz	a0,80001322 <uvmcreate+0x22>
    return 0;
  memset(pagetable, 0, PGSIZE);
    80001316:	6605                	lui	a2,0x1
    80001318:	4581                	li	a1,0
    8000131a:	00000097          	auipc	ra,0x0
    8000131e:	9b4080e7          	jalr	-1612(ra) # 80000cce <memset>
  return pagetable;
}
    80001322:	8526                	mv	a0,s1
    80001324:	60e2                	ld	ra,24(sp)
    80001326:	6442                	ld	s0,16(sp)
    80001328:	64a2                	ld	s1,8(sp)
    8000132a:	6105                	addi	sp,sp,32
    8000132c:	8082                	ret

000000008000132e <uvminit>:
// Load the user initcode into address 0 of pagetable,
// for the very first process.
// sz must be less than a page.
void
uvminit(pagetable_t pagetable, uchar *src, uint sz)
{
    8000132e:	7179                	addi	sp,sp,-48
    80001330:	f406                	sd	ra,40(sp)
    80001332:	f022                	sd	s0,32(sp)
    80001334:	ec26                	sd	s1,24(sp)
    80001336:	e84a                	sd	s2,16(sp)
    80001338:	e44e                	sd	s3,8(sp)
    8000133a:	e052                	sd	s4,0(sp)
    8000133c:	1800                	addi	s0,sp,48
  char *mem;

  if(sz >= PGSIZE)
    8000133e:	6785                	lui	a5,0x1
    80001340:	04f67863          	bgeu	a2,a5,80001390 <uvminit+0x62>
    80001344:	8a2a                	mv	s4,a0
    80001346:	89ae                	mv	s3,a1
    80001348:	84b2                	mv	s1,a2
    panic("inituvm: more than a page");
  mem = kalloc();
    8000134a:	fffff097          	auipc	ra,0xfffff
    8000134e:	798080e7          	jalr	1944(ra) # 80000ae2 <kalloc>
    80001352:	892a                	mv	s2,a0
  memset(mem, 0, PGSIZE);
    80001354:	6605                	lui	a2,0x1
    80001356:	4581                	li	a1,0
    80001358:	00000097          	auipc	ra,0x0
    8000135c:	976080e7          	jalr	-1674(ra) # 80000cce <memset>
  mappages(pagetable, 0, PGSIZE, (uint64)mem, PTE_W|PTE_R|PTE_X|PTE_U);
    80001360:	4779                	li	a4,30
    80001362:	86ca                	mv	a3,s2
    80001364:	6605                	lui	a2,0x1
    80001366:	4581                	li	a1,0
    80001368:	8552                	mv	a0,s4
    8000136a:	00000097          	auipc	ra,0x0
    8000136e:	d1e080e7          	jalr	-738(ra) # 80001088 <mappages>
  memmove(mem, src, sz);
    80001372:	8626                	mv	a2,s1
    80001374:	85ce                	mv	a1,s3
    80001376:	854a                	mv	a0,s2
    80001378:	00000097          	auipc	ra,0x0
    8000137c:	9b2080e7          	jalr	-1614(ra) # 80000d2a <memmove>
}
    80001380:	70a2                	ld	ra,40(sp)
    80001382:	7402                	ld	s0,32(sp)
    80001384:	64e2                	ld	s1,24(sp)
    80001386:	6942                	ld	s2,16(sp)
    80001388:	69a2                	ld	s3,8(sp)
    8000138a:	6a02                	ld	s4,0(sp)
    8000138c:	6145                	addi	sp,sp,48
    8000138e:	8082                	ret
    panic("inituvm: more than a page");
    80001390:	00008517          	auipc	a0,0x8
    80001394:	dc050513          	addi	a0,a0,-576 # 80009150 <digits+0x110>
    80001398:	fffff097          	auipc	ra,0xfffff
    8000139c:	192080e7          	jalr	402(ra) # 8000052a <panic>

00000000800013a0 <find_min_empty_offset>:

//find min empty offset to write into swap file
uint
find_min_empty_offset(){
    800013a0:	1141                	addi	sp,sp,-16
    800013a2:	e406                	sd	ra,8(sp)
    800013a4:	e022                	sd	s0,0(sp)
    800013a6:	0800                	addi	s0,sp,16
  struct proc * process = myproc();
    800013a8:	00001097          	auipc	ra,0x1
    800013ac:	032080e7          	jalr	50(ra) # 800023da <myproc>
  uint min_empty_offset= 0;
  int already_in_use = 0;
  for(int i=0; i<process->sz; i = i+PGSIZE){
    800013b0:	04853803          	ld	a6,72(a0)
    800013b4:	4581                	li	a1,0
    800013b6:	2f050613          	addi	a2,a0,752
    800013ba:	6885                	lui	a7,0x1
    800013bc:	00081763          	bnez	a6,800013ca <find_min_empty_offset+0x2a>
  uint min_empty_offset= 0;
    800013c0:	4501                	li	a0,0
    800013c2:	a005                	j	800013e2 <find_min_empty_offset+0x42>
  for(int i=0; i<process->sz; i = i+PGSIZE){
    800013c4:	95c6                	add	a1,a1,a7
    800013c6:	0305f263          	bgeu	a1,a6,800013ea <find_min_empty_offset+0x4a>
    already_in_use = 0;
      for(int j=0; j<32; j++){
    800013ca:	17050793          	addi	a5,a0,368
        if(process->paging_meta_data[j].offset == i){
    800013ce:	0005869b          	sext.w	a3,a1
    800013d2:	4398                	lw	a4,0(a5)
    800013d4:	fed708e3          	beq	a4,a3,800013c4 <find_min_empty_offset+0x24>
      for(int j=0; j<32; j++){
    800013d8:	07b1                	addi	a5,a5,12
    800013da:	fec79ce3          	bne	a5,a2,800013d2 <find_min_empty_offset+0x32>
          already_in_use =1; 
          break;
        }
      }
    if(already_in_use == 0){
      min_empty_offset = i;
    800013de:	0005851b          	sext.w	a0,a1
      break; 
    }
  }
  return min_empty_offset;

}
    800013e2:	60a2                	ld	ra,8(sp)
    800013e4:	6402                	ld	s0,0(sp)
    800013e6:	0141                	addi	sp,sp,16
    800013e8:	8082                	ret
  uint min_empty_offset= 0;
    800013ea:	4501                	li	a0,0
    800013ec:	bfdd                	j	800013e2 <find_min_empty_offset+0x42>

00000000800013ee <freewalk>:

// Recursively free page-table pages.
// All leaf mappings must already have been removed.
void
freewalk(pagetable_t pagetable)
{
    800013ee:	7179                	addi	sp,sp,-48
    800013f0:	f406                	sd	ra,40(sp)
    800013f2:	f022                	sd	s0,32(sp)
    800013f4:	ec26                	sd	s1,24(sp)
    800013f6:	e84a                	sd	s2,16(sp)
    800013f8:	e44e                	sd	s3,8(sp)
    800013fa:	e052                	sd	s4,0(sp)
    800013fc:	1800                	addi	s0,sp,48
    800013fe:	8a2a                	mv	s4,a0
  // there are 2^9 = 512 PTEs in a page table.
  for(int i = 0; i < 512; i++){
    80001400:	84aa                	mv	s1,a0
    80001402:	6905                	lui	s2,0x1
    80001404:	992a                	add	s2,s2,a0
    pte_t pte = pagetable[i];
    if((pte & PTE_V) && (pte & (PTE_R|PTE_W|PTE_X)) == 0){
    80001406:	4985                	li	s3,1
    80001408:	a821                	j	80001420 <freewalk+0x32>
      // this PTE points to a lower-level page table.
      uint64 child = PTE2PA(pte);
    8000140a:	8129                	srli	a0,a0,0xa
      freewalk((pagetable_t)child);
    8000140c:	0532                	slli	a0,a0,0xc
    8000140e:	00000097          	auipc	ra,0x0
    80001412:	fe0080e7          	jalr	-32(ra) # 800013ee <freewalk>
      pagetable[i] = 0;
    80001416:	0004b023          	sd	zero,0(s1)
  for(int i = 0; i < 512; i++){
    8000141a:	04a1                	addi	s1,s1,8
    8000141c:	03248163          	beq	s1,s2,8000143e <freewalk+0x50>
    pte_t pte = pagetable[i];
    80001420:	6088                	ld	a0,0(s1)
    if((pte & PTE_V) && (pte & (PTE_R|PTE_W|PTE_X)) == 0){
    80001422:	00f57793          	andi	a5,a0,15
    80001426:	ff3782e3          	beq	a5,s3,8000140a <freewalk+0x1c>
    } else if(pte & PTE_V){ 
    8000142a:	8905                	andi	a0,a0,1
    8000142c:	d57d                	beqz	a0,8000141a <freewalk+0x2c>
      panic("freewalk: leaf\n");
    8000142e:	00008517          	auipc	a0,0x8
    80001432:	d4250513          	addi	a0,a0,-702 # 80009170 <digits+0x130>
    80001436:	fffff097          	auipc	ra,0xfffff
    8000143a:	0f4080e7          	jalr	244(ra) # 8000052a <panic>
    }
  }
  kfree((void*)pagetable);
    8000143e:	8552                	mv	a0,s4
    80001440:	fffff097          	auipc	ra,0xfffff
    80001444:	596080e7          	jalr	1430(ra) # 800009d6 <kfree>
}
    80001448:	70a2                	ld	ra,40(sp)
    8000144a:	7402                	ld	s0,32(sp)
    8000144c:	64e2                	ld	s1,24(sp)
    8000144e:	6942                	ld	s2,16(sp)
    80001450:	69a2                	ld	s3,8(sp)
    80001452:	6a02                	ld	s4,0(sp)
    80001454:	6145                	addi	sp,sp,48
    80001456:	8082                	ret

0000000080001458 <uvmclear>:

// mark a PTE invalid for user access.
// used by exec for the user stack guard page.
void
uvmclear(pagetable_t pagetable, uint64 va)
{
    80001458:	1141                	addi	sp,sp,-16
    8000145a:	e406                	sd	ra,8(sp)
    8000145c:	e022                	sd	s0,0(sp)
    8000145e:	0800                	addi	s0,sp,16
  pte_t *pte;
  
  pte = walk(pagetable, va, 0);
    80001460:	4601                	li	a2,0
    80001462:	00000097          	auipc	ra,0x0
    80001466:	b54080e7          	jalr	-1196(ra) # 80000fb6 <walk>
  if(pte == 0)
    8000146a:	c901                	beqz	a0,8000147a <uvmclear+0x22>
    panic("uvmclear");
  *pte &= ~PTE_U;
    8000146c:	611c                	ld	a5,0(a0)
    8000146e:	9bbd                	andi	a5,a5,-17
    80001470:	e11c                	sd	a5,0(a0)
}
    80001472:	60a2                	ld	ra,8(sp)
    80001474:	6402                	ld	s0,0(sp)
    80001476:	0141                	addi	sp,sp,16
    80001478:	8082                	ret
    panic("uvmclear");
    8000147a:	00008517          	auipc	a0,0x8
    8000147e:	d0650513          	addi	a0,a0,-762 # 80009180 <digits+0x140>
    80001482:	fffff097          	auipc	ra,0xfffff
    80001486:	0a8080e7          	jalr	168(ra) # 8000052a <panic>

000000008000148a <copyout>:
int
copyout(pagetable_t pagetable, uint64 dstva, char *src, uint64 len)
{
  uint64 n, va0, pa0;

  while(len > 0){
    8000148a:	c6bd                	beqz	a3,800014f8 <copyout+0x6e>
{
    8000148c:	715d                	addi	sp,sp,-80
    8000148e:	e486                	sd	ra,72(sp)
    80001490:	e0a2                	sd	s0,64(sp)
    80001492:	fc26                	sd	s1,56(sp)
    80001494:	f84a                	sd	s2,48(sp)
    80001496:	f44e                	sd	s3,40(sp)
    80001498:	f052                	sd	s4,32(sp)
    8000149a:	ec56                	sd	s5,24(sp)
    8000149c:	e85a                	sd	s6,16(sp)
    8000149e:	e45e                	sd	s7,8(sp)
    800014a0:	e062                	sd	s8,0(sp)
    800014a2:	0880                	addi	s0,sp,80
    800014a4:	8b2a                	mv	s6,a0
    800014a6:	8c2e                	mv	s8,a1
    800014a8:	8a32                	mv	s4,a2
    800014aa:	89b6                	mv	s3,a3
    va0 = PGROUNDDOWN(dstva);
    800014ac:	7bfd                	lui	s7,0xfffff
    pa0 = walkaddr(pagetable, va0);
   
    if(pa0 == 0){
      return -1;
    }
    n = PGSIZE - (dstva - va0);
    800014ae:	6a85                	lui	s5,0x1
    800014b0:	a015                	j	800014d4 <copyout+0x4a>
    if(n > len)
      n = len;
    memmove((void *)(pa0 + (dstva - va0)), src, n);
    800014b2:	9562                	add	a0,a0,s8
    800014b4:	0004861b          	sext.w	a2,s1
    800014b8:	85d2                	mv	a1,s4
    800014ba:	41250533          	sub	a0,a0,s2
    800014be:	00000097          	auipc	ra,0x0
    800014c2:	86c080e7          	jalr	-1940(ra) # 80000d2a <memmove>

    len -= n;
    800014c6:	409989b3          	sub	s3,s3,s1
    src += n;
    800014ca:	9a26                	add	s4,s4,s1
    dstva = va0 + PGSIZE;
    800014cc:	01590c33          	add	s8,s2,s5
  while(len > 0){
    800014d0:	02098263          	beqz	s3,800014f4 <copyout+0x6a>
    va0 = PGROUNDDOWN(dstva);
    800014d4:	017c7933          	and	s2,s8,s7
    pa0 = walkaddr(pagetable, va0);
    800014d8:	85ca                	mv	a1,s2
    800014da:	855a                	mv	a0,s6
    800014dc:	00000097          	auipc	ra,0x0
    800014e0:	b6a080e7          	jalr	-1174(ra) # 80001046 <walkaddr>
    if(pa0 == 0){
    800014e4:	cd01                	beqz	a0,800014fc <copyout+0x72>
    n = PGSIZE - (dstva - va0);
    800014e6:	418904b3          	sub	s1,s2,s8
    800014ea:	94d6                	add	s1,s1,s5
    if(n > len)
    800014ec:	fc99f3e3          	bgeu	s3,s1,800014b2 <copyout+0x28>
    800014f0:	84ce                	mv	s1,s3
    800014f2:	b7c1                	j	800014b2 <copyout+0x28>
  }
  return 0;
    800014f4:	4501                	li	a0,0
    800014f6:	a021                	j	800014fe <copyout+0x74>
    800014f8:	4501                	li	a0,0
}
    800014fa:	8082                	ret
      return -1;
    800014fc:	557d                	li	a0,-1
}
    800014fe:	60a6                	ld	ra,72(sp)
    80001500:	6406                	ld	s0,64(sp)
    80001502:	74e2                	ld	s1,56(sp)
    80001504:	7942                	ld	s2,48(sp)
    80001506:	79a2                	ld	s3,40(sp)
    80001508:	7a02                	ld	s4,32(sp)
    8000150a:	6ae2                	ld	s5,24(sp)
    8000150c:	6b42                	ld	s6,16(sp)
    8000150e:	6ba2                	ld	s7,8(sp)
    80001510:	6c02                	ld	s8,0(sp)
    80001512:	6161                	addi	sp,sp,80
    80001514:	8082                	ret

0000000080001516 <copyin>:
int
copyin(pagetable_t pagetable, char *dst, uint64 srcva, uint64 len)
{
  uint64 n, va0, pa0;

  while(len > 0){
    80001516:	caa5                	beqz	a3,80001586 <copyin+0x70>
{
    80001518:	715d                	addi	sp,sp,-80
    8000151a:	e486                	sd	ra,72(sp)
    8000151c:	e0a2                	sd	s0,64(sp)
    8000151e:	fc26                	sd	s1,56(sp)
    80001520:	f84a                	sd	s2,48(sp)
    80001522:	f44e                	sd	s3,40(sp)
    80001524:	f052                	sd	s4,32(sp)
    80001526:	ec56                	sd	s5,24(sp)
    80001528:	e85a                	sd	s6,16(sp)
    8000152a:	e45e                	sd	s7,8(sp)
    8000152c:	e062                	sd	s8,0(sp)
    8000152e:	0880                	addi	s0,sp,80
    80001530:	8b2a                	mv	s6,a0
    80001532:	8a2e                	mv	s4,a1
    80001534:	8c32                	mv	s8,a2
    80001536:	89b6                	mv	s3,a3
    va0 = PGROUNDDOWN(srcva);
    80001538:	7bfd                	lui	s7,0xfffff
    pa0 = walkaddr(pagetable, va0);
    if(pa0 == 0)
      return -1;
    n = PGSIZE - (srcva - va0);
    8000153a:	6a85                	lui	s5,0x1
    8000153c:	a01d                	j	80001562 <copyin+0x4c>
    if(n > len)
      n = len;
    memmove(dst, (void *)(pa0 + (srcva - va0)), n);
    8000153e:	018505b3          	add	a1,a0,s8
    80001542:	0004861b          	sext.w	a2,s1
    80001546:	412585b3          	sub	a1,a1,s2
    8000154a:	8552                	mv	a0,s4
    8000154c:	fffff097          	auipc	ra,0xfffff
    80001550:	7de080e7          	jalr	2014(ra) # 80000d2a <memmove>

    len -= n;
    80001554:	409989b3          	sub	s3,s3,s1
    dst += n;
    80001558:	9a26                	add	s4,s4,s1
    srcva = va0 + PGSIZE;
    8000155a:	01590c33          	add	s8,s2,s5
  while(len > 0){
    8000155e:	02098263          	beqz	s3,80001582 <copyin+0x6c>
    va0 = PGROUNDDOWN(srcva);
    80001562:	017c7933          	and	s2,s8,s7
    pa0 = walkaddr(pagetable, va0);
    80001566:	85ca                	mv	a1,s2
    80001568:	855a                	mv	a0,s6
    8000156a:	00000097          	auipc	ra,0x0
    8000156e:	adc080e7          	jalr	-1316(ra) # 80001046 <walkaddr>
    if(pa0 == 0)
    80001572:	cd01                	beqz	a0,8000158a <copyin+0x74>
    n = PGSIZE - (srcva - va0);
    80001574:	418904b3          	sub	s1,s2,s8
    80001578:	94d6                	add	s1,s1,s5
    if(n > len)
    8000157a:	fc99f2e3          	bgeu	s3,s1,8000153e <copyin+0x28>
    8000157e:	84ce                	mv	s1,s3
    80001580:	bf7d                	j	8000153e <copyin+0x28>
  }
  return 0;
    80001582:	4501                	li	a0,0
    80001584:	a021                	j	8000158c <copyin+0x76>
    80001586:	4501                	li	a0,0
}
    80001588:	8082                	ret
      return -1;
    8000158a:	557d                	li	a0,-1
}
    8000158c:	60a6                	ld	ra,72(sp)
    8000158e:	6406                	ld	s0,64(sp)
    80001590:	74e2                	ld	s1,56(sp)
    80001592:	7942                	ld	s2,48(sp)
    80001594:	79a2                	ld	s3,40(sp)
    80001596:	7a02                	ld	s4,32(sp)
    80001598:	6ae2                	ld	s5,24(sp)
    8000159a:	6b42                	ld	s6,16(sp)
    8000159c:	6ba2                	ld	s7,8(sp)
    8000159e:	6c02                	ld	s8,0(sp)
    800015a0:	6161                	addi	sp,sp,80
    800015a2:	8082                	ret

00000000800015a4 <copyinstr>:
copyinstr(pagetable_t pagetable, char *dst, uint64 srcva, uint64 max)
{
  uint64 n, va0, pa0;
  int got_null = 0;

  while(got_null == 0 && max > 0){
    800015a4:	c6c5                	beqz	a3,8000164c <copyinstr+0xa8>
{
    800015a6:	715d                	addi	sp,sp,-80
    800015a8:	e486                	sd	ra,72(sp)
    800015aa:	e0a2                	sd	s0,64(sp)
    800015ac:	fc26                	sd	s1,56(sp)
    800015ae:	f84a                	sd	s2,48(sp)
    800015b0:	f44e                	sd	s3,40(sp)
    800015b2:	f052                	sd	s4,32(sp)
    800015b4:	ec56                	sd	s5,24(sp)
    800015b6:	e85a                	sd	s6,16(sp)
    800015b8:	e45e                	sd	s7,8(sp)
    800015ba:	0880                	addi	s0,sp,80
    800015bc:	8a2a                	mv	s4,a0
    800015be:	8b2e                	mv	s6,a1
    800015c0:	8bb2                	mv	s7,a2
    800015c2:	84b6                	mv	s1,a3
    va0 = PGROUNDDOWN(srcva);
    800015c4:	7afd                	lui	s5,0xfffff
    pa0 = walkaddr(pagetable, va0);
    if(pa0 == 0)
      return -1;
    n = PGSIZE - (srcva - va0);
    800015c6:	6985                	lui	s3,0x1
    800015c8:	a035                	j	800015f4 <copyinstr+0x50>
      n = max;

    char *p = (char *) (pa0 + (srcva - va0));
    while(n > 0){
      if(*p == '\0'){
        *dst = '\0';
    800015ca:	00078023          	sb	zero,0(a5) # 1000 <_entry-0x7ffff000>
    800015ce:	4785                	li	a5,1
      dst++;
    }

    srcva = va0 + PGSIZE;
  }
  if(got_null){
    800015d0:	0017b793          	seqz	a5,a5
    800015d4:	40f00533          	neg	a0,a5
    return 0;
  } else {
    return -1;
  }
}
    800015d8:	60a6                	ld	ra,72(sp)
    800015da:	6406                	ld	s0,64(sp)
    800015dc:	74e2                	ld	s1,56(sp)
    800015de:	7942                	ld	s2,48(sp)
    800015e0:	79a2                	ld	s3,40(sp)
    800015e2:	7a02                	ld	s4,32(sp)
    800015e4:	6ae2                	ld	s5,24(sp)
    800015e6:	6b42                	ld	s6,16(sp)
    800015e8:	6ba2                	ld	s7,8(sp)
    800015ea:	6161                	addi	sp,sp,80
    800015ec:	8082                	ret
    srcva = va0 + PGSIZE;
    800015ee:	01390bb3          	add	s7,s2,s3
  while(got_null == 0 && max > 0){
    800015f2:	c8a9                	beqz	s1,80001644 <copyinstr+0xa0>
    va0 = PGROUNDDOWN(srcva);
    800015f4:	015bf933          	and	s2,s7,s5
    pa0 = walkaddr(pagetable, va0);
    800015f8:	85ca                	mv	a1,s2
    800015fa:	8552                	mv	a0,s4
    800015fc:	00000097          	auipc	ra,0x0
    80001600:	a4a080e7          	jalr	-1462(ra) # 80001046 <walkaddr>
    if(pa0 == 0)
    80001604:	c131                	beqz	a0,80001648 <copyinstr+0xa4>
    n = PGSIZE - (srcva - va0);
    80001606:	41790833          	sub	a6,s2,s7
    8000160a:	984e                	add	a6,a6,s3
    if(n > max)
    8000160c:	0104f363          	bgeu	s1,a6,80001612 <copyinstr+0x6e>
    80001610:	8826                	mv	a6,s1
    char *p = (char *) (pa0 + (srcva - va0));
    80001612:	955e                	add	a0,a0,s7
    80001614:	41250533          	sub	a0,a0,s2
    while(n > 0){
    80001618:	fc080be3          	beqz	a6,800015ee <copyinstr+0x4a>
    8000161c:	985a                	add	a6,a6,s6
    8000161e:	87da                	mv	a5,s6
      if(*p == '\0'){
    80001620:	41650633          	sub	a2,a0,s6
    80001624:	14fd                	addi	s1,s1,-1
    80001626:	9b26                	add	s6,s6,s1
    80001628:	00f60733          	add	a4,a2,a5
    8000162c:	00074703          	lbu	a4,0(a4) # fffffffffffff000 <end+0xffffffff7ffd0000>
    80001630:	df49                	beqz	a4,800015ca <copyinstr+0x26>
        *dst = *p;
    80001632:	00e78023          	sb	a4,0(a5)
      --max;
    80001636:	40fb04b3          	sub	s1,s6,a5
      dst++;
    8000163a:	0785                	addi	a5,a5,1
    while(n > 0){
    8000163c:	ff0796e3          	bne	a5,a6,80001628 <copyinstr+0x84>
      dst++;
    80001640:	8b42                	mv	s6,a6
    80001642:	b775                	j	800015ee <copyinstr+0x4a>
    80001644:	4781                	li	a5,0
    80001646:	b769                	j	800015d0 <copyinstr+0x2c>
      return -1;
    80001648:	557d                	li	a0,-1
    8000164a:	b779                	j	800015d8 <copyinstr+0x34>
  int got_null = 0;
    8000164c:	4781                	li	a5,0
  if(got_null){
    8000164e:	0017b793          	seqz	a5,a5
    80001652:	40f00533          	neg	a0,a5
}
    80001656:	8082                	ret

0000000080001658 <get_num_of_pages_in_memory>:
    p->paging_meta_data[remove_file_indx].offset = offset;
    p->paging_meta_data[remove_file_indx].in_memory = 0;
      
}

int get_num_of_pages_in_memory(){
    80001658:	7179                	addi	sp,sp,-48
    8000165a:	f406                	sd	ra,40(sp)
    8000165c:	f022                	sd	s0,32(sp)
    8000165e:	ec26                	sd	s1,24(sp)
    80001660:	e84a                	sd	s2,16(sp)
    80001662:	e44e                	sd	s3,8(sp)
    80001664:	e052                	sd	s4,0(sp)
    80001666:	1800                	addi	s0,sp,48
  int counter = 0;
  for(int i=0; i<32; i++){
    80001668:	4481                	li	s1,0
  int counter = 0;
    8000166a:	4981                	li	s3,0
    if(myproc()->paging_meta_data[i].in_memory){
      printf("pid %d , %d in memory\n", myproc()->pid, i);
    8000166c:	00008a17          	auipc	s4,0x8
    80001670:	b24a0a13          	addi	s4,s4,-1244 # 80009190 <digits+0x150>
  for(int i=0; i<32; i++){
    80001674:	02000913          	li	s2,32
    80001678:	a021                	j	80001680 <get_num_of_pages_in_memory+0x28>
    8000167a:	2485                	addiw	s1,s1,1
    8000167c:	03248b63          	beq	s1,s2,800016b2 <get_num_of_pages_in_memory+0x5a>
    if(myproc()->paging_meta_data[i].in_memory){
    80001680:	00001097          	auipc	ra,0x1
    80001684:	d5a080e7          	jalr	-678(ra) # 800023da <myproc>
    80001688:	00149793          	slli	a5,s1,0x1
    8000168c:	97a6                	add	a5,a5,s1
    8000168e:	078a                	slli	a5,a5,0x2
    80001690:	97aa                	add	a5,a5,a0
    80001692:	1787a783          	lw	a5,376(a5)
    80001696:	d3f5                	beqz	a5,8000167a <get_num_of_pages_in_memory+0x22>
      printf("pid %d , %d in memory\n", myproc()->pid, i);
    80001698:	00001097          	auipc	ra,0x1
    8000169c:	d42080e7          	jalr	-702(ra) # 800023da <myproc>
    800016a0:	8626                	mv	a2,s1
    800016a2:	590c                	lw	a1,48(a0)
    800016a4:	8552                	mv	a0,s4
    800016a6:	fffff097          	auipc	ra,0xfffff
    800016aa:	ece080e7          	jalr	-306(ra) # 80000574 <printf>
      counter = counter+1;
    800016ae:	2985                	addiw	s3,s3,1
    800016b0:	b7e9                	j	8000167a <get_num_of_pages_in_memory+0x22>
    }
  }
  return counter; 
}
    800016b2:	854e                	mv	a0,s3
    800016b4:	70a2                	ld	ra,40(sp)
    800016b6:	7402                	ld	s0,32(sp)
    800016b8:	64e2                	ld	s1,24(sp)
    800016ba:	6942                	ld	s2,16(sp)
    800016bc:	69a2                	ld	s3,8(sp)
    800016be:	6a02                	ld	s4,0(sp)
    800016c0:	6145                	addi	sp,sp,48
    800016c2:	8082                	ret

00000000800016c4 <minimum_counter_NFUA>:
  else
    exit(-1);
}


int minimum_counter_NFUA(){
    800016c4:	1141                	addi	sp,sp,-16
    800016c6:	e406                	sd	ra,8(sp)
    800016c8:	e022                	sd	s0,0(sp)
    800016ca:	0800                	addi	s0,sp,16
  struct proc * p = myproc();
    800016cc:	00001097          	auipc	ra,0x1
    800016d0:	d0e080e7          	jalr	-754(ra) # 800023da <myproc>
  uint min_age = -1;
  int index_page = -1;
  for (int i = USER_MEMORY_INDEX; i <32; i++){ 
    800016d4:	19850793          	addi	a5,a0,408
    800016d8:	470d                	li	a4,3
  int index_page = -1;
    800016da:	557d                	li	a0,-1
  uint min_age = -1;
    800016dc:	55fd                	li	a1,-1
    if (p->paging_meta_data[i].in_memory ){
        if (min_age == -1 || (uint)p->paging_meta_data[i].aging < min_age){
    800016de:	58fd                	li	a7,-1
  for (int i = USER_MEMORY_INDEX; i <32; i++){ 
    800016e0:	02000813          	li	a6,32
    800016e4:	a039                	j	800016f2 <minimum_counter_NFUA+0x2e>
          min_age = p->paging_meta_data[i].aging;
    800016e6:	420c                	lw	a1,0(a2)
    800016e8:	853a                	mv	a0,a4
  for (int i = USER_MEMORY_INDEX; i <32; i++){ 
    800016ea:	2705                	addiw	a4,a4,1
    800016ec:	07b1                	addi	a5,a5,12
    800016ee:	01070b63          	beq	a4,a6,80001704 <minimum_counter_NFUA+0x40>
    if (p->paging_meta_data[i].in_memory ){
    800016f2:	863e                	mv	a2,a5
    800016f4:	43d4                	lw	a3,4(a5)
    800016f6:	daf5                	beqz	a3,800016ea <minimum_counter_NFUA+0x26>
        if (min_age == -1 || (uint)p->paging_meta_data[i].aging < min_age){
    800016f8:	ff1587e3          	beq	a1,a7,800016e6 <minimum_counter_NFUA+0x22>
    800016fc:	4394                	lw	a3,0(a5)
    800016fe:	feb6f6e3          	bgeu	a3,a1,800016ea <minimum_counter_NFUA+0x26>
    80001702:	b7d5                	j	800016e6 <minimum_counter_NFUA+0x22>
          index_page = i;
        }
      }
  }
  if(min_age == -1)
    80001704:	57fd                	li	a5,-1
    80001706:	00f58663          	beq	a1,a5,80001712 <minimum_counter_NFUA+0x4e>
    panic("page replacment algorithem failed");
  return index_page;
}
    8000170a:	60a2                	ld	ra,8(sp)
    8000170c:	6402                	ld	s0,0(sp)
    8000170e:	0141                	addi	sp,sp,16
    80001710:	8082                	ret
    panic("page replacment algorithem failed");
    80001712:	00008517          	auipc	a0,0x8
    80001716:	a9650513          	addi	a0,a0,-1386 # 800091a8 <digits+0x168>
    8000171a:	fffff097          	auipc	ra,0xfffff
    8000171e:	e10080e7          	jalr	-496(ra) # 8000052a <panic>

0000000080001722 <count_one_bits>:

int count_one_bits(uint age){
    80001722:	1141                	addi	sp,sp,-16
    80001724:	e422                	sd	s0,8(sp)
    80001726:	0800                	addi	s0,sp,16
  int count = 0;
  while(age) {
    80001728:	cd01                	beqz	a0,80001740 <count_one_bits+0x1e>
    8000172a:	87aa                	mv	a5,a0
  int count = 0;
    8000172c:	4501                	li	a0,0
      count += age & 1;
    8000172e:	0017f713          	andi	a4,a5,1
    80001732:	9d39                	addw	a0,a0,a4
      age >>= 1;
    80001734:	0017d79b          	srliw	a5,a5,0x1
  while(age) {
    80001738:	fbfd                	bnez	a5,8000172e <count_one_bits+0xc>
  }
  return count;
}
    8000173a:	6422                	ld	s0,8(sp)
    8000173c:	0141                	addi	sp,sp,16
    8000173e:	8082                	ret
  int count = 0;
    80001740:	4501                	li	a0,0
    80001742:	bfe5                	j	8000173a <count_one_bits+0x18>

0000000080001744 <minimum_ones>:

int minimum_ones(){
    80001744:	715d                	addi	sp,sp,-80
    80001746:	e486                	sd	ra,72(sp)
    80001748:	e0a2                	sd	s0,64(sp)
    8000174a:	fc26                	sd	s1,56(sp)
    8000174c:	f84a                	sd	s2,48(sp)
    8000174e:	f44e                	sd	s3,40(sp)
    80001750:	f052                	sd	s4,32(sp)
    80001752:	ec56                	sd	s5,24(sp)
    80001754:	e85a                	sd	s6,16(sp)
    80001756:	e45e                	sd	s7,8(sp)
    80001758:	e062                	sd	s8,0(sp)
    8000175a:	0880                	addi	s0,sp,80
  struct proc * p = myproc();
    8000175c:	00001097          	auipc	ra,0x1
    80001760:	c7e080e7          	jalr	-898(ra) # 800023da <myproc>
  int min_ones = -1;
  int min_age = -1;
  int index_page = -1;
  uint age;
  for (int i = USER_MEMORY_INDEX; i <32; i++){
    80001764:	19850493          	addi	s1,a0,408
    80001768:	490d                	li	s2,3
  int index_page = -1;
    8000176a:	5c7d                	li	s8,-1
  int min_age = -1;
    8000176c:	5bfd                	li	s7,-1
  int min_ones = -1;
    8000176e:	5a7d                	li	s4,-1
    if (p->paging_meta_data[i].in_memory ){
      age =  p->paging_meta_data[i].aging;
      int count_ones =  count_one_bits(age);
      if (min_ones == -1 || count_ones < min_ones || (count_ones == min_ones && age < min_age)){
    80001770:	5b7d                	li	s6,-1
  for (int i = USER_MEMORY_INDEX; i <32; i++){
    80001772:	02000993          	li	s3,32
    80001776:	a809                	j	80001788 <minimum_ones+0x44>
        min_ones = count_ones;
        min_age = age;
    80001778:	000a8b9b          	sext.w	s7,s5
    8000177c:	8c4a                	mv	s8,s2
        min_ones = count_ones;
    8000177e:	8a2a                	mv	s4,a0
  for (int i = USER_MEMORY_INDEX; i <32; i++){
    80001780:	2905                	addiw	s2,s2,1
    80001782:	04b1                	addi	s1,s1,12
    80001784:	03390663          	beq	s2,s3,800017b0 <minimum_ones+0x6c>
    if (p->paging_meta_data[i].in_memory ){
    80001788:	40dc                	lw	a5,4(s1)
    8000178a:	dbfd                	beqz	a5,80001780 <minimum_ones+0x3c>
      age =  p->paging_meta_data[i].aging;
    8000178c:	0004aa83          	lw	s5,0(s1)
      int count_ones =  count_one_bits(age);
    80001790:	8556                	mv	a0,s5
    80001792:	00000097          	auipc	ra,0x0
    80001796:	f90080e7          	jalr	-112(ra) # 80001722 <count_one_bits>
      if (min_ones == -1 || count_ones < min_ones || (count_ones == min_ones && age < min_age)){
    8000179a:	fd6a0fe3          	beq	s4,s6,80001778 <minimum_ones+0x34>
    8000179e:	fd454de3          	blt	a0,s4,80001778 <minimum_ones+0x34>
    800017a2:	fd451fe3          	bne	a0,s4,80001780 <minimum_ones+0x3c>
    800017a6:	000b879b          	sext.w	a5,s7
    800017aa:	fcfafbe3          	bgeu	s5,a5,80001780 <minimum_ones+0x3c>
    800017ae:	b7e9                	j	80001778 <minimum_ones+0x34>
        index_page = i;
      }
    }
  }
  if(min_ones == -1)
    800017b0:	57fd                	li	a5,-1
    800017b2:	00fa0f63          	beq	s4,a5,800017d0 <minimum_ones+0x8c>
    panic("page replacment algorithem failed");
  return index_page;
}
    800017b6:	8562                	mv	a0,s8
    800017b8:	60a6                	ld	ra,72(sp)
    800017ba:	6406                	ld	s0,64(sp)
    800017bc:	74e2                	ld	s1,56(sp)
    800017be:	7942                	ld	s2,48(sp)
    800017c0:	79a2                	ld	s3,40(sp)
    800017c2:	7a02                	ld	s4,32(sp)
    800017c4:	6ae2                	ld	s5,24(sp)
    800017c6:	6b42                	ld	s6,16(sp)
    800017c8:	6ba2                	ld	s7,8(sp)
    800017ca:	6c02                	ld	s8,0(sp)
    800017cc:	6161                	addi	sp,sp,80
    800017ce:	8082                	ret
    panic("page replacment algorithem failed");
    800017d0:	00008517          	auipc	a0,0x8
    800017d4:	9d850513          	addi	a0,a0,-1576 # 800091a8 <digits+0x168>
    800017d8:	fffff097          	auipc	ra,0xfffff
    800017dc:	d52080e7          	jalr	-686(ra) # 8000052a <panic>

00000000800017e0 <insert_to_queue>:
uint64 insert_to_queue(int inserted_page){
    800017e0:	1101                	addi	sp,sp,-32
    800017e2:	ec06                	sd	ra,24(sp)
    800017e4:	e822                	sd	s0,16(sp)
    800017e6:	e426                	sd	s1,8(sp)
    800017e8:	1000                	addi	s0,sp,32
    800017ea:	84aa                	mv	s1,a0
  struct proc * process = myproc();
    800017ec:	00001097          	auipc	ra,0x1
    800017f0:	bee080e7          	jalr	-1042(ra) # 800023da <myproc>
  struct age_queue * q = &process->queue;
  if(inserted_page >= 3){
    800017f4:	4789                	li	a5,2
    800017f6:	0297d763          	bge	a5,s1,80001824 <insert_to_queue+0x44>
    if (q->last == 31)
    800017fa:	37452703          	lw	a4,884(a0)
    800017fe:	47fd                	li	a5,31
    80001800:	02f70863          	beq	a4,a5,80001830 <insert_to_queue+0x50>
      q->last = -1;
    q->last = q->last + 1;
    80001804:	37452703          	lw	a4,884(a0)
    80001808:	2705                	addiw	a4,a4,1
    8000180a:	0007079b          	sext.w	a5,a4
    8000180e:	36e52a23          	sw	a4,884(a0)
    q->pages[q->last] =inserted_page;
    80001812:	078a                	slli	a5,a5,0x2
    80001814:	97aa                	add	a5,a5,a0
    80001816:	2e97a823          	sw	s1,752(a5)
    q->page_counter =  q->page_counter + 1;
    8000181a:	37852783          	lw	a5,888(a0)
    8000181e:	2785                	addiw	a5,a5,1
    80001820:	36f52c23          	sw	a5,888(a0)
  }
  return 0;
}
    80001824:	4501                	li	a0,0
    80001826:	60e2                	ld	ra,24(sp)
    80001828:	6442                	ld	s0,16(sp)
    8000182a:	64a2                	ld	s1,8(sp)
    8000182c:	6105                	addi	sp,sp,32
    8000182e:	8082                	ret
      q->last = -1;
    80001830:	57fd                	li	a5,-1
    80001832:	36f52a23          	sw	a5,884(a0)
    80001836:	b7f9                	j	80001804 <insert_to_queue+0x24>

0000000080001838 <remove_from_queue>:

void remove_from_queue(struct age_queue * q){
    80001838:	1141                	addi	sp,sp,-16
    8000183a:	e422                	sd	s0,8(sp)
    8000183c:	0800                	addi	s0,sp,16
  q->front = q->front+1;
    8000183e:	08052783          	lw	a5,128(a0)
    80001842:	2785                	addiw	a5,a5,1
    80001844:	0007869b          	sext.w	a3,a5
   if(q->front == 32) {
    80001848:	02000713          	li	a4,32
    8000184c:	00e68c63          	beq	a3,a4,80001864 <remove_from_queue+0x2c>
  q->front = q->front+1;
    80001850:	08f52023          	sw	a5,128(a0)
      q->front = 0;
   }
   q->page_counter = q->page_counter-1;
    80001854:	08852783          	lw	a5,136(a0)
    80001858:	37fd                	addiw	a5,a5,-1
    8000185a:	08f52423          	sw	a5,136(a0)
   
}
    8000185e:	6422                	ld	s0,8(sp)
    80001860:	0141                	addi	sp,sp,16
    80001862:	8082                	ret
      q->front = 0;
    80001864:	08052023          	sw	zero,128(a0)
    80001868:	b7f5                	j	80001854 <remove_from_queue+0x1c>

000000008000186a <remove_from_queue_not_in_memory>:
void
remove_from_queue_not_in_memory(int page_num_removed){
    8000186a:	7139                	addi	sp,sp,-64
    8000186c:	fc06                	sd	ra,56(sp)
    8000186e:	f822                	sd	s0,48(sp)
    80001870:	f426                	sd	s1,40(sp)
    80001872:	f04a                	sd	s2,32(sp)
    80001874:	ec4e                	sd	s3,24(sp)
    80001876:	e852                	sd	s4,16(sp)
    80001878:	e456                	sd	s5,8(sp)
    8000187a:	e05a                	sd	s6,0(sp)
    8000187c:	0080                	addi	s0,sp,64
    8000187e:	8a2a                	mv	s4,a0
  struct proc * p = myproc();
    80001880:	00001097          	auipc	ra,0x1
    80001884:	b5a080e7          	jalr	-1190(ra) # 800023da <myproc>
  struct age_queue * q = &(p->queue);
  int cur_page;
  int page_count = q->page_counter;
    80001888:	37852a83          	lw	s5,888(a0)
  for(int i = 0; i<page_count; i++){
    8000188c:	03505d63          	blez	s5,800018c6 <remove_from_queue_not_in_memory+0x5c>
    80001890:	892a                	mv	s2,a0
    80001892:	2f050b13          	addi	s6,a0,752
    80001896:	4481                	li	s1,0
    80001898:	a021                	j	800018a0 <remove_from_queue_not_in_memory+0x36>
    8000189a:	2485                	addiw	s1,s1,1
    8000189c:	029a8563          	beq	s5,s1,800018c6 <remove_from_queue_not_in_memory+0x5c>
    cur_page = q->pages[q->front];
    800018a0:	37092783          	lw	a5,880(s2) # 1370 <_entry-0x7fffec90>
    800018a4:	078a                	slli	a5,a5,0x2
    800018a6:	97ca                	add	a5,a5,s2
    800018a8:	2f07a983          	lw	s3,752(a5)
     remove_from_queue(q);
    800018ac:	855a                	mv	a0,s6
    800018ae:	00000097          	auipc	ra,0x0
    800018b2:	f8a080e7          	jalr	-118(ra) # 80001838 <remove_from_queue>
    if (!(page_num_removed == cur_page)){
    800018b6:	ff4982e3          	beq	s3,s4,8000189a <remove_from_queue_not_in_memory+0x30>
     insert_to_queue(cur_page);
    800018ba:	854e                	mv	a0,s3
    800018bc:	00000097          	auipc	ra,0x0
    800018c0:	f24080e7          	jalr	-220(ra) # 800017e0 <insert_to_queue>
    800018c4:	bfd9                	j	8000189a <remove_from_queue_not_in_memory+0x30>
    }
  }
}
    800018c6:	70e2                	ld	ra,56(sp)
    800018c8:	7442                	ld	s0,48(sp)
    800018ca:	74a2                	ld	s1,40(sp)
    800018cc:	7902                	ld	s2,32(sp)
    800018ce:	69e2                	ld	s3,24(sp)
    800018d0:	6a42                	ld	s4,16(sp)
    800018d2:	6aa2                	ld	s5,8(sp)
    800018d4:	6b02                	ld	s6,0(sp)
    800018d6:	6121                	addi	sp,sp,64
    800018d8:	8082                	ret

00000000800018da <uvmunmap>:
{
    800018da:	711d                	addi	sp,sp,-96
    800018dc:	ec86                	sd	ra,88(sp)
    800018de:	e8a2                	sd	s0,80(sp)
    800018e0:	e4a6                	sd	s1,72(sp)
    800018e2:	e0ca                	sd	s2,64(sp)
    800018e4:	fc4e                	sd	s3,56(sp)
    800018e6:	f852                	sd	s4,48(sp)
    800018e8:	f456                	sd	s5,40(sp)
    800018ea:	f05a                	sd	s6,32(sp)
    800018ec:	ec5e                	sd	s7,24(sp)
    800018ee:	e862                	sd	s8,16(sp)
    800018f0:	e466                	sd	s9,8(sp)
    800018f2:	e06a                	sd	s10,0(sp)
    800018f4:	1080                	addi	s0,sp,96
  if((va % PGSIZE) != 0)
    800018f6:	03459793          	slli	a5,a1,0x34
    800018fa:	eb95                	bnez	a5,8000192e <uvmunmap+0x54>
    800018fc:	8a2a                	mv	s4,a0
    800018fe:	892e                	mv	s2,a1
    80001900:	8b36                	mv	s6,a3
  for(a = va; a < va + npages*PGSIZE; a += PGSIZE){    
    80001902:	0632                	slli	a2,a2,0xc
    80001904:	00b609b3          	add	s3,a2,a1
            myproc()->paging_meta_data[ a/PGSIZE].offset = -1;
    80001908:	5c7d                	li	s8,-1
        if(PTE_FLAGS(*pte) == PTE_V)
    8000190a:	4b85                	li	s7,1
  for(a = va; a < va + npages*PGSIZE; a += PGSIZE){    
    8000190c:	6a85                	lui	s5,0x1
    8000190e:	0535e563          	bltu	a1,s3,80001958 <uvmunmap+0x7e>
}
    80001912:	60e6                	ld	ra,88(sp)
    80001914:	6446                	ld	s0,80(sp)
    80001916:	64a6                	ld	s1,72(sp)
    80001918:	6906                	ld	s2,64(sp)
    8000191a:	79e2                	ld	s3,56(sp)
    8000191c:	7a42                	ld	s4,48(sp)
    8000191e:	7aa2                	ld	s5,40(sp)
    80001920:	7b02                	ld	s6,32(sp)
    80001922:	6be2                	ld	s7,24(sp)
    80001924:	6c42                	ld	s8,16(sp)
    80001926:	6ca2                	ld	s9,8(sp)
    80001928:	6d02                	ld	s10,0(sp)
    8000192a:	6125                	addi	sp,sp,96
    8000192c:	8082                	ret
    panic("uvmunmap: not aligned");
    8000192e:	00007517          	auipc	a0,0x7
    80001932:	7ca50513          	addi	a0,a0,1994 # 800090f8 <digits+0xb8>
    80001936:	fffff097          	auipc	ra,0xfffff
    8000193a:	bf4080e7          	jalr	-1036(ra) # 8000052a <panic>
          panic("uvmunmap: not a leaf");
    8000193e:	00007517          	auipc	a0,0x7
    80001942:	7fa50513          	addi	a0,a0,2042 # 80009138 <digits+0xf8>
    80001946:	fffff097          	auipc	ra,0xfffff
    8000194a:	be4080e7          	jalr	-1052(ra) # 8000052a <panic>
        *pte = 0;
    8000194e:	0004b023          	sd	zero,0(s1)
  for(a = va; a < va + npages*PGSIZE; a += PGSIZE){    
    80001952:	9956                	add	s2,s2,s5
    80001954:	fb397fe3          	bgeu	s2,s3,80001912 <uvmunmap+0x38>
    if((pte = walk(pagetable, a, 0)) != 0){
    80001958:	4601                	li	a2,0
    8000195a:	85ca                	mv	a1,s2
    8000195c:	8552                	mv	a0,s4
    8000195e:	fffff097          	auipc	ra,0xfffff
    80001962:	658080e7          	jalr	1624(ra) # 80000fb6 <walk>
    80001966:	84aa                	mv	s1,a0
    80001968:	d56d                	beqz	a0,80001952 <uvmunmap+0x78>
      if((*pte & PTE_V) != 0){
    8000196a:	611c                	ld	a5,0(a0)
    8000196c:	0017f713          	andi	a4,a5,1
    80001970:	cf21                	beqz	a4,800019c8 <uvmunmap+0xee>
        if(PTE_FLAGS(*pte) == PTE_V)
    80001972:	3ff7f713          	andi	a4,a5,1023
    80001976:	fd7704e3          	beq	a4,s7,8000193e <uvmunmap+0x64>
        if(do_free){
    8000197a:	fc0b0ae3          	beqz	s6,8000194e <uvmunmap+0x74>
          uint64 pa = PTE2PA(*pte);
    8000197e:	83a9                	srli	a5,a5,0xa
          kfree((void*)pa);
    80001980:	00c79513          	slli	a0,a5,0xc
    80001984:	fffff097          	auipc	ra,0xfffff
    80001988:	052080e7          	jalr	82(ra) # 800009d6 <kfree>
            myproc()->paging_meta_data[a/PGSIZE].in_memory = 0;
    8000198c:	00001097          	auipc	ra,0x1
    80001990:	a4e080e7          	jalr	-1458(ra) # 800023da <myproc>
    80001994:	00c95d13          	srli	s10,s2,0xc
    80001998:	001d1c93          	slli	s9,s10,0x1
    8000199c:	01ac87b3          	add	a5,s9,s10
    800019a0:	078a                	slli	a5,a5,0x2
    800019a2:	953e                	add	a0,a0,a5
    800019a4:	16052c23          	sw	zero,376(a0)
            myproc()->paging_meta_data[a/PGSIZE].offset = -1;
    800019a8:	00001097          	auipc	ra,0x1
    800019ac:	a32080e7          	jalr	-1486(ra) # 800023da <myproc>
    800019b0:	9cea                	add	s9,s9,s10
    800019b2:	0c8a                	slli	s9,s9,0x2
    800019b4:	9caa                	add	s9,s9,a0
    800019b6:	178ca823          	sw	s8,368(s9)
            remove_from_queue_not_in_memory(a/PGSIZE);
    800019ba:	000d051b          	sext.w	a0,s10
    800019be:	00000097          	auipc	ra,0x0
    800019c2:	eac080e7          	jalr	-340(ra) # 8000186a <remove_from_queue_not_in_memory>
    800019c6:	b761                	j	8000194e <uvmunmap+0x74>
      else if(do_free){
    800019c8:	f80b05e3          	beqz	s6,80001952 <uvmunmap+0x78>
            myproc()->paging_meta_data[ a/PGSIZE].offset = -1;
    800019cc:	00001097          	auipc	ra,0x1
    800019d0:	a0e080e7          	jalr	-1522(ra) # 800023da <myproc>
    800019d4:	00c95713          	srli	a4,s2,0xc
    800019d8:	00171793          	slli	a5,a4,0x1
    800019dc:	97ba                	add	a5,a5,a4
    800019de:	078a                	slli	a5,a5,0x2
    800019e0:	97aa                	add	a5,a5,a0
    800019e2:	1787a823          	sw	s8,368(a5)
    800019e6:	b7b5                	j	80001952 <uvmunmap+0x78>

00000000800019e8 <uvmdealloc>:
{
    800019e8:	1101                	addi	sp,sp,-32
    800019ea:	ec06                	sd	ra,24(sp)
    800019ec:	e822                	sd	s0,16(sp)
    800019ee:	e426                	sd	s1,8(sp)
    800019f0:	1000                	addi	s0,sp,32
    return oldsz;
    800019f2:	84ae                	mv	s1,a1
  if(newsz >= oldsz)
    800019f4:	00b67d63          	bgeu	a2,a1,80001a0e <uvmdealloc+0x26>
    800019f8:	84b2                	mv	s1,a2
  if(PGROUNDUP(newsz) < PGROUNDUP(oldsz)){
    800019fa:	6785                	lui	a5,0x1
    800019fc:	17fd                	addi	a5,a5,-1
    800019fe:	00f60733          	add	a4,a2,a5
    80001a02:	767d                	lui	a2,0xfffff
    80001a04:	8f71                	and	a4,a4,a2
    80001a06:	97ae                	add	a5,a5,a1
    80001a08:	8ff1                	and	a5,a5,a2
    80001a0a:	00f76863          	bltu	a4,a5,80001a1a <uvmdealloc+0x32>
}
    80001a0e:	8526                	mv	a0,s1
    80001a10:	60e2                	ld	ra,24(sp)
    80001a12:	6442                	ld	s0,16(sp)
    80001a14:	64a2                	ld	s1,8(sp)
    80001a16:	6105                	addi	sp,sp,32
    80001a18:	8082                	ret
    int npages = (PGROUNDUP(oldsz) - PGROUNDUP(newsz)) / PGSIZE;
    80001a1a:	8f99                	sub	a5,a5,a4
    80001a1c:	83b1                	srli	a5,a5,0xc
    uvmunmap(pagetable, PGROUNDUP(newsz), npages, 1);
    80001a1e:	4685                	li	a3,1
    80001a20:	0007861b          	sext.w	a2,a5
    80001a24:	85ba                	mv	a1,a4
    80001a26:	00000097          	auipc	ra,0x0
    80001a2a:	eb4080e7          	jalr	-332(ra) # 800018da <uvmunmap>
    80001a2e:	b7c5                	j	80001a0e <uvmdealloc+0x26>

0000000080001a30 <origin_uvmalloc>:
  if(newsz < oldsz)
    80001a30:	0ab66163          	bltu	a2,a1,80001ad2 <origin_uvmalloc+0xa2>
origin_uvmalloc(pagetable_t pagetable, uint64 oldsz, uint64 newsz){
    80001a34:	7139                	addi	sp,sp,-64
    80001a36:	fc06                	sd	ra,56(sp)
    80001a38:	f822                	sd	s0,48(sp)
    80001a3a:	f426                	sd	s1,40(sp)
    80001a3c:	f04a                	sd	s2,32(sp)
    80001a3e:	ec4e                	sd	s3,24(sp)
    80001a40:	e852                	sd	s4,16(sp)
    80001a42:	e456                	sd	s5,8(sp)
    80001a44:	0080                	addi	s0,sp,64
    80001a46:	8aaa                	mv	s5,a0
    80001a48:	8a32                	mv	s4,a2
  oldsz = PGROUNDUP(oldsz);
    80001a4a:	6985                	lui	s3,0x1
    80001a4c:	19fd                	addi	s3,s3,-1
    80001a4e:	95ce                	add	a1,a1,s3
    80001a50:	79fd                	lui	s3,0xfffff
    80001a52:	0135f9b3          	and	s3,a1,s3
  for(a = oldsz; a < newsz; a += PGSIZE){
    80001a56:	08c9f063          	bgeu	s3,a2,80001ad6 <origin_uvmalloc+0xa6>
    80001a5a:	894e                	mv	s2,s3
      mem = kalloc();
    80001a5c:	fffff097          	auipc	ra,0xfffff
    80001a60:	086080e7          	jalr	134(ra) # 80000ae2 <kalloc>
    80001a64:	84aa                	mv	s1,a0
      if(mem == 0){
    80001a66:	c51d                	beqz	a0,80001a94 <origin_uvmalloc+0x64>
      memset(mem, 0, PGSIZE);
    80001a68:	6605                	lui	a2,0x1
    80001a6a:	4581                	li	a1,0
    80001a6c:	fffff097          	auipc	ra,0xfffff
    80001a70:	262080e7          	jalr	610(ra) # 80000cce <memset>
      if(mappages(pagetable, a, PGSIZE, (uint64)mem, PTE_W|PTE_X|PTE_R|PTE_U) != 0){
    80001a74:	4779                	li	a4,30
    80001a76:	86a6                	mv	a3,s1
    80001a78:	6605                	lui	a2,0x1
    80001a7a:	85ca                	mv	a1,s2
    80001a7c:	8556                	mv	a0,s5
    80001a7e:	fffff097          	auipc	ra,0xfffff
    80001a82:	60a080e7          	jalr	1546(ra) # 80001088 <mappages>
    80001a86:	e905                	bnez	a0,80001ab6 <origin_uvmalloc+0x86>
  for(a = oldsz; a < newsz; a += PGSIZE){
    80001a88:	6785                	lui	a5,0x1
    80001a8a:	993e                	add	s2,s2,a5
    80001a8c:	fd4968e3          	bltu	s2,s4,80001a5c <origin_uvmalloc+0x2c>
  return newsz;
    80001a90:	8552                	mv	a0,s4
    80001a92:	a809                	j	80001aa4 <origin_uvmalloc+0x74>
        uvmdealloc(pagetable, a, oldsz);
    80001a94:	864e                	mv	a2,s3
    80001a96:	85ca                	mv	a1,s2
    80001a98:	8556                	mv	a0,s5
    80001a9a:	00000097          	auipc	ra,0x0
    80001a9e:	f4e080e7          	jalr	-178(ra) # 800019e8 <uvmdealloc>
        return 0;
    80001aa2:	4501                	li	a0,0
}
    80001aa4:	70e2                	ld	ra,56(sp)
    80001aa6:	7442                	ld	s0,48(sp)
    80001aa8:	74a2                	ld	s1,40(sp)
    80001aaa:	7902                	ld	s2,32(sp)
    80001aac:	69e2                	ld	s3,24(sp)
    80001aae:	6a42                	ld	s4,16(sp)
    80001ab0:	6aa2                	ld	s5,8(sp)
    80001ab2:	6121                	addi	sp,sp,64
    80001ab4:	8082                	ret
        kfree(mem);
    80001ab6:	8526                	mv	a0,s1
    80001ab8:	fffff097          	auipc	ra,0xfffff
    80001abc:	f1e080e7          	jalr	-226(ra) # 800009d6 <kfree>
        uvmdealloc(pagetable, a, oldsz);
    80001ac0:	864e                	mv	a2,s3
    80001ac2:	85ca                	mv	a1,s2
    80001ac4:	8556                	mv	a0,s5
    80001ac6:	00000097          	auipc	ra,0x0
    80001aca:	f22080e7          	jalr	-222(ra) # 800019e8 <uvmdealloc>
        return 0;
    80001ace:	4501                	li	a0,0
    80001ad0:	bfd1                	j	80001aa4 <origin_uvmalloc+0x74>
    return oldsz;
    80001ad2:	852e                	mv	a0,a1
}
    80001ad4:	8082                	ret
  return newsz;
    80001ad6:	8532                	mv	a0,a2
    80001ad8:	b7f1                	j	80001aa4 <origin_uvmalloc+0x74>

0000000080001ada <uvmalloc>:
  if(newsz < oldsz)
    80001ada:	18b66563          	bltu	a2,a1,80001c64 <uvmalloc+0x18a>
{
    80001ade:	711d                	addi	sp,sp,-96
    80001ae0:	ec86                	sd	ra,88(sp)
    80001ae2:	e8a2                	sd	s0,80(sp)
    80001ae4:	e4a6                	sd	s1,72(sp)
    80001ae6:	e0ca                	sd	s2,64(sp)
    80001ae8:	fc4e                	sd	s3,56(sp)
    80001aea:	f852                	sd	s4,48(sp)
    80001aec:	f456                	sd	s5,40(sp)
    80001aee:	f05a                	sd	s6,32(sp)
    80001af0:	ec5e                	sd	s7,24(sp)
    80001af2:	e862                	sd	s8,16(sp)
    80001af4:	e466                	sd	s9,8(sp)
    80001af6:	e06a                	sd	s10,0(sp)
    80001af8:	1080                	addi	s0,sp,96
    80001afa:	89aa                	mv	s3,a0
    80001afc:	8a32                	mv	s4,a2
  oldsz = PGROUNDUP(oldsz);
    80001afe:	6b85                	lui	s7,0x1
    80001b00:	1bfd                	addi	s7,s7,-1
    80001b02:	95de                	add	a1,a1,s7
    80001b04:	7bfd                	lui	s7,0xfffff
    80001b06:	0175fbb3          	and	s7,a1,s7
  for(a = oldsz; a < newsz; a += PGSIZE){
    80001b0a:	14cbff63          	bgeu	s7,a2,80001c68 <uvmalloc+0x18e>
     if(a/PGSIZE > MAX_TOTAL_PAGES){
    80001b0e:	000217b7          	lui	a5,0x21
    80001b12:	00fbf863          	bgeu	s7,a5,80001b22 <uvmalloc+0x48>
  for(a = oldsz; a < newsz; a += PGSIZE){
    80001b16:	84de                	mv	s1,s7
     if(get_num_of_pages_in_memory() >= MAX_PSYC_PAGES){
    80001b18:	4abd                	li	s5,15
      myproc()->paging_meta_data[a/PGSIZE].in_memory = 1;
    80001b1a:	4c05                	li	s8,1
     if(a/PGSIZE > MAX_TOTAL_PAGES){
    80001b1c:	00021b37          	lui	s6,0x21
    80001b20:	a8a1                	j	80001b78 <uvmalloc+0x9e>
      panic("more than 32 pages");
    80001b22:	00007517          	auipc	a0,0x7
    80001b26:	6ae50513          	addi	a0,a0,1710 # 800091d0 <digits+0x190>
    80001b2a:	fffff097          	auipc	ra,0xfffff
    80001b2e:	a00080e7          	jalr	-1536(ra) # 8000052a <panic>
      pte = walk(pagetable, a, 0);
    80001b32:	4601                	li	a2,0
    80001b34:	85a6                	mv	a1,s1
    80001b36:	854e                	mv	a0,s3
    80001b38:	fffff097          	auipc	ra,0xfffff
    80001b3c:	47e080e7          	jalr	1150(ra) # 80000fb6 <walk>
      *pte = *pte & (~PTE_V);
    80001b40:	611c                	ld	a5,0(a0)
    80001b42:	9bf9                	andi	a5,a5,-2
    80001b44:	e11c                	sd	a5,0(a0)
      int offset = find_min_empty_offset();
    80001b46:	00000097          	auipc	ra,0x0
    80001b4a:	85a080e7          	jalr	-1958(ra) # 800013a0 <find_min_empty_offset>
    80001b4e:	0005091b          	sext.w	s2,a0
      myproc()->paging_meta_data[a/PGSIZE].offset = offset;
    80001b52:	00001097          	auipc	ra,0x1
    80001b56:	888080e7          	jalr	-1912(ra) # 800023da <myproc>
    80001b5a:	00c4d713          	srli	a4,s1,0xc
    80001b5e:	00171793          	slli	a5,a4,0x1
    80001b62:	97ba                	add	a5,a5,a4
    80001b64:	078a                	slli	a5,a5,0x2
    80001b66:	97aa                	add	a5,a5,a0
    80001b68:	1727a823          	sw	s2,368(a5) # 21170 <_entry-0x7ffdee90>
  for(a = oldsz; a < newsz; a += PGSIZE){
    80001b6c:	6785                	lui	a5,0x1
    80001b6e:	94be                	add	s1,s1,a5
    80001b70:	0d44fb63          	bgeu	s1,s4,80001c46 <uvmalloc+0x16c>
     if(a/PGSIZE > MAX_TOTAL_PAGES){
    80001b74:	fb64f7e3          	bgeu	s1,s6,80001b22 <uvmalloc+0x48>
     if(get_num_of_pages_in_memory() >= MAX_PSYC_PAGES){
    80001b78:	00000097          	auipc	ra,0x0
    80001b7c:	ae0080e7          	jalr	-1312(ra) # 80001658 <get_num_of_pages_in_memory>
    80001b80:	02aad763          	bge	s5,a0,80001bae <uvmalloc+0xd4>
       if(mappages(pagetable, a, PGSIZE, 0, PTE_W|PTE_R|PTE_X|PTE_U|PTE_PG) < 0) {
    80001b84:	41e00713          	li	a4,1054
    80001b88:	4681                	li	a3,0
    80001b8a:	6605                	lui	a2,0x1
    80001b8c:	85a6                	mv	a1,s1
    80001b8e:	854e                	mv	a0,s3
    80001b90:	fffff097          	auipc	ra,0xfffff
    80001b94:	4f8080e7          	jalr	1272(ra) # 80001088 <mappages>
    80001b98:	f8055de3          	bgez	a0,80001b32 <uvmalloc+0x58>
         uvmdealloc(pagetable, newsz, oldsz);
    80001b9c:	865e                	mv	a2,s7
    80001b9e:	85d2                	mv	a1,s4
    80001ba0:	854e                	mv	a0,s3
    80001ba2:	00000097          	auipc	ra,0x0
    80001ba6:	e46080e7          	jalr	-442(ra) # 800019e8 <uvmdealloc>
         return 0;
    80001baa:	4501                	li	a0,0
    80001bac:	a871                	j	80001c48 <uvmalloc+0x16e>
      mem = kalloc();
    80001bae:	fffff097          	auipc	ra,0xfffff
    80001bb2:	f34080e7          	jalr	-204(ra) # 80000ae2 <kalloc>
    80001bb6:	892a                	mv	s2,a0
      if(mem == 0){
    80001bb8:	c125                	beqz	a0,80001c18 <uvmalloc+0x13e>
      memset(mem, 0, PGSIZE);
    80001bba:	6605                	lui	a2,0x1
    80001bbc:	4581                	li	a1,0
    80001bbe:	fffff097          	auipc	ra,0xfffff
    80001bc2:	110080e7          	jalr	272(ra) # 80000cce <memset>
      if(mappages(pagetable, a, PGSIZE, (uint64)mem, PTE_W|PTE_X|PTE_R|PTE_U) != 0){
    80001bc6:	4779                	li	a4,30
    80001bc8:	86ca                	mv	a3,s2
    80001bca:	6605                	lui	a2,0x1
    80001bcc:	85a6                	mv	a1,s1
    80001bce:	854e                	mv	a0,s3
    80001bd0:	fffff097          	auipc	ra,0xfffff
    80001bd4:	4b8080e7          	jalr	1208(ra) # 80001088 <mappages>
    80001bd8:	e929                	bnez	a0,80001c2a <uvmalloc+0x150>
      myproc()->paging_meta_data[a/PGSIZE].in_memory = 1;
    80001bda:	00001097          	auipc	ra,0x1
    80001bde:	800080e7          	jalr	-2048(ra) # 800023da <myproc>
    80001be2:	00c4dd13          	srli	s10,s1,0xc
    80001be6:	001d1913          	slli	s2,s10,0x1
    80001bea:	01a907b3          	add	a5,s2,s10
    80001bee:	078a                	slli	a5,a5,0x2
    80001bf0:	953e                	add	a0,a0,a5
    80001bf2:	17852c23          	sw	s8,376(a0)
      myproc()->paging_meta_data[a/PGSIZE].aging = init_aging(a/PGSIZE);
    80001bf6:	00000097          	auipc	ra,0x0
    80001bfa:	7e4080e7          	jalr	2020(ra) # 800023da <myproc>
    80001bfe:	8caa                	mv	s9,a0
  #endif
  #if SELECTION == LAPA
    return LAPA_AGE;
  #endif
  #if SELECTION==SCFIFO
    return insert_to_queue(fifo_init_pages);
    80001c00:	000d051b          	sext.w	a0,s10
    80001c04:	00000097          	auipc	ra,0x0
    80001c08:	bdc080e7          	jalr	-1060(ra) # 800017e0 <insert_to_queue>
      myproc()->paging_meta_data[a/PGSIZE].aging = init_aging(a/PGSIZE);
    80001c0c:	996a                	add	s2,s2,s10
    80001c0e:	090a                	slli	s2,s2,0x2
    80001c10:	9966                	add	s2,s2,s9
    return insert_to_queue(fifo_init_pages);
    80001c12:	16a92a23          	sw	a0,372(s2)
    80001c16:	bf99                	j	80001b6c <uvmalloc+0x92>
        uvmdealloc(pagetable, a, oldsz);
    80001c18:	865e                	mv	a2,s7
    80001c1a:	85a6                	mv	a1,s1
    80001c1c:	854e                	mv	a0,s3
    80001c1e:	00000097          	auipc	ra,0x0
    80001c22:	dca080e7          	jalr	-566(ra) # 800019e8 <uvmdealloc>
        return 0;
    80001c26:	4501                	li	a0,0
    80001c28:	a005                	j	80001c48 <uvmalloc+0x16e>
        kfree(mem);
    80001c2a:	854a                	mv	a0,s2
    80001c2c:	fffff097          	auipc	ra,0xfffff
    80001c30:	daa080e7          	jalr	-598(ra) # 800009d6 <kfree>
        uvmdealloc(pagetable, a, oldsz);
    80001c34:	865e                	mv	a2,s7
    80001c36:	85a6                	mv	a1,s1
    80001c38:	854e                	mv	a0,s3
    80001c3a:	00000097          	auipc	ra,0x0
    80001c3e:	dae080e7          	jalr	-594(ra) # 800019e8 <uvmdealloc>
        return 0;
    80001c42:	4501                	li	a0,0
    80001c44:	a011                	j	80001c48 <uvmalloc+0x16e>
  return newsz;
    80001c46:	8552                	mv	a0,s4
}
    80001c48:	60e6                	ld	ra,88(sp)
    80001c4a:	6446                	ld	s0,80(sp)
    80001c4c:	64a6                	ld	s1,72(sp)
    80001c4e:	6906                	ld	s2,64(sp)
    80001c50:	79e2                	ld	s3,56(sp)
    80001c52:	7a42                	ld	s4,48(sp)
    80001c54:	7aa2                	ld	s5,40(sp)
    80001c56:	7b02                	ld	s6,32(sp)
    80001c58:	6be2                	ld	s7,24(sp)
    80001c5a:	6c42                	ld	s8,16(sp)
    80001c5c:	6ca2                	ld	s9,8(sp)
    80001c5e:	6d02                	ld	s10,0(sp)
    80001c60:	6125                	addi	sp,sp,96
    80001c62:	8082                	ret
    return oldsz;
    80001c64:	852e                	mv	a0,a1
}
    80001c66:	8082                	ret
  return newsz;
    80001c68:	8532                	mv	a0,a2
    80001c6a:	bff9                	j	80001c48 <uvmalloc+0x16e>

0000000080001c6c <lazy_memory_allocation>:
void lazy_memory_allocation(uint64 faulting_address){
    80001c6c:	1101                	addi	sp,sp,-32
    80001c6e:	ec06                	sd	ra,24(sp)
    80001c70:	e822                	sd	s0,16(sp)
    80001c72:	e426                	sd	s1,8(sp)
    80001c74:	1000                	addi	s0,sp,32
    80001c76:	84aa                	mv	s1,a0
  uvmalloc(myproc()->pagetable,PGROUNDDOWN(faulting_address), PGROUNDDOWN(faulting_address) + PGSIZE);     
    80001c78:	00000097          	auipc	ra,0x0
    80001c7c:	762080e7          	jalr	1890(ra) # 800023da <myproc>
    80001c80:	75fd                	lui	a1,0xfffff
    80001c82:	8de5                	and	a1,a1,s1
    80001c84:	6605                	lui	a2,0x1
    80001c86:	962e                	add	a2,a2,a1
    80001c88:	6928                	ld	a0,80(a0)
    80001c8a:	00000097          	auipc	ra,0x0
    80001c8e:	e50080e7          	jalr	-432(ra) # 80001ada <uvmalloc>
}
    80001c92:	60e2                	ld	ra,24(sp)
    80001c94:	6442                	ld	s0,16(sp)
    80001c96:	64a2                	ld	s1,8(sp)
    80001c98:	6105                	addi	sp,sp,32
    80001c9a:	8082                	ret

0000000080001c9c <uvmfree>:
{
    80001c9c:	1101                	addi	sp,sp,-32
    80001c9e:	ec06                	sd	ra,24(sp)
    80001ca0:	e822                	sd	s0,16(sp)
    80001ca2:	e426                	sd	s1,8(sp)
    80001ca4:	1000                	addi	s0,sp,32
    80001ca6:	84aa                	mv	s1,a0
  if(sz > 0)
    80001ca8:	e999                	bnez	a1,80001cbe <uvmfree+0x22>
  freewalk(pagetable);
    80001caa:	8526                	mv	a0,s1
    80001cac:	fffff097          	auipc	ra,0xfffff
    80001cb0:	742080e7          	jalr	1858(ra) # 800013ee <freewalk>
}
    80001cb4:	60e2                	ld	ra,24(sp)
    80001cb6:	6442                	ld	s0,16(sp)
    80001cb8:	64a2                	ld	s1,8(sp)
    80001cba:	6105                	addi	sp,sp,32
    80001cbc:	8082                	ret
    uvmunmap(pagetable, 0, PGROUNDUP(sz)/PGSIZE, 1);
    80001cbe:	6605                	lui	a2,0x1
    80001cc0:	167d                	addi	a2,a2,-1
    80001cc2:	962e                	add	a2,a2,a1
    80001cc4:	4685                	li	a3,1
    80001cc6:	8231                	srli	a2,a2,0xc
    80001cc8:	4581                	li	a1,0
    80001cca:	00000097          	auipc	ra,0x0
    80001cce:	c10080e7          	jalr	-1008(ra) # 800018da <uvmunmap>
    80001cd2:	bfe1                	j	80001caa <uvmfree+0xe>

0000000080001cd4 <origin_uvmcopy>:
  for(i = 0; i < sz; i += PGSIZE){
    80001cd4:	c679                	beqz	a2,80001da2 <origin_uvmcopy+0xce>
int origin_uvmcopy(pagetable_t old, pagetable_t new, uint64 sz){
    80001cd6:	715d                	addi	sp,sp,-80
    80001cd8:	e486                	sd	ra,72(sp)
    80001cda:	e0a2                	sd	s0,64(sp)
    80001cdc:	fc26                	sd	s1,56(sp)
    80001cde:	f84a                	sd	s2,48(sp)
    80001ce0:	f44e                	sd	s3,40(sp)
    80001ce2:	f052                	sd	s4,32(sp)
    80001ce4:	ec56                	sd	s5,24(sp)
    80001ce6:	e85a                	sd	s6,16(sp)
    80001ce8:	e45e                	sd	s7,8(sp)
    80001cea:	0880                	addi	s0,sp,80
    80001cec:	8b2a                	mv	s6,a0
    80001cee:	8aae                	mv	s5,a1
    80001cf0:	8a32                	mv	s4,a2
  for(i = 0; i < sz; i += PGSIZE){
    80001cf2:	4981                	li	s3,0
    if((pte = walk(old, i, 0)) == 0)
    80001cf4:	4601                	li	a2,0
    80001cf6:	85ce                	mv	a1,s3
    80001cf8:	855a                	mv	a0,s6
    80001cfa:	fffff097          	auipc	ra,0xfffff
    80001cfe:	2bc080e7          	jalr	700(ra) # 80000fb6 <walk>
    80001d02:	c531                	beqz	a0,80001d4e <origin_uvmcopy+0x7a>
    if((*pte & PTE_V) == 0)
    80001d04:	6118                	ld	a4,0(a0)
    80001d06:	00177793          	andi	a5,a4,1
    80001d0a:	cbb1                	beqz	a5,80001d5e <origin_uvmcopy+0x8a>
    pa = PTE2PA(*pte);
    80001d0c:	00a75593          	srli	a1,a4,0xa
    80001d10:	00c59b93          	slli	s7,a1,0xc
    flags = PTE_FLAGS(*pte);
    80001d14:	3ff77493          	andi	s1,a4,1023
    if((mem = kalloc()) == 0)
    80001d18:	fffff097          	auipc	ra,0xfffff
    80001d1c:	dca080e7          	jalr	-566(ra) # 80000ae2 <kalloc>
    80001d20:	892a                	mv	s2,a0
    80001d22:	c939                	beqz	a0,80001d78 <origin_uvmcopy+0xa4>
    memmove(mem, (char*)pa, PGSIZE);
    80001d24:	6605                	lui	a2,0x1
    80001d26:	85de                	mv	a1,s7
    80001d28:	fffff097          	auipc	ra,0xfffff
    80001d2c:	002080e7          	jalr	2(ra) # 80000d2a <memmove>
    if(mappages(new, i, PGSIZE, (uint64)mem, flags) != 0){
    80001d30:	8726                	mv	a4,s1
    80001d32:	86ca                	mv	a3,s2
    80001d34:	6605                	lui	a2,0x1
    80001d36:	85ce                	mv	a1,s3
    80001d38:	8556                	mv	a0,s5
    80001d3a:	fffff097          	auipc	ra,0xfffff
    80001d3e:	34e080e7          	jalr	846(ra) # 80001088 <mappages>
    80001d42:	e515                	bnez	a0,80001d6e <origin_uvmcopy+0x9a>
  for(i = 0; i < sz; i += PGSIZE){
    80001d44:	6785                	lui	a5,0x1
    80001d46:	99be                	add	s3,s3,a5
    80001d48:	fb49e6e3          	bltu	s3,s4,80001cf4 <origin_uvmcopy+0x20>
    80001d4c:	a081                	j	80001d8c <origin_uvmcopy+0xb8>
      panic("uvmcopy: pte should exist");
    80001d4e:	00007517          	auipc	a0,0x7
    80001d52:	49a50513          	addi	a0,a0,1178 # 800091e8 <digits+0x1a8>
    80001d56:	ffffe097          	auipc	ra,0xffffe
    80001d5a:	7d4080e7          	jalr	2004(ra) # 8000052a <panic>
      panic("uvmcopy: page not present");
    80001d5e:	00007517          	auipc	a0,0x7
    80001d62:	4aa50513          	addi	a0,a0,1194 # 80009208 <digits+0x1c8>
    80001d66:	ffffe097          	auipc	ra,0xffffe
    80001d6a:	7c4080e7          	jalr	1988(ra) # 8000052a <panic>
      kfree(mem);
    80001d6e:	854a                	mv	a0,s2
    80001d70:	fffff097          	auipc	ra,0xfffff
    80001d74:	c66080e7          	jalr	-922(ra) # 800009d6 <kfree>
  uvmunmap(new, 0, i / PGSIZE, 1);
    80001d78:	4685                	li	a3,1
    80001d7a:	00c9d613          	srli	a2,s3,0xc
    80001d7e:	4581                	li	a1,0
    80001d80:	8556                	mv	a0,s5
    80001d82:	00000097          	auipc	ra,0x0
    80001d86:	b58080e7          	jalr	-1192(ra) # 800018da <uvmunmap>
  return -1;
    80001d8a:	557d                	li	a0,-1
}
    80001d8c:	60a6                	ld	ra,72(sp)
    80001d8e:	6406                	ld	s0,64(sp)
    80001d90:	74e2                	ld	s1,56(sp)
    80001d92:	7942                	ld	s2,48(sp)
    80001d94:	79a2                	ld	s3,40(sp)
    80001d96:	7a02                	ld	s4,32(sp)
    80001d98:	6ae2                	ld	s5,24(sp)
    80001d9a:	6b42                	ld	s6,16(sp)
    80001d9c:	6ba2                	ld	s7,8(sp)
    80001d9e:	6161                	addi	sp,sp,80
    80001da0:	8082                	ret
  return 0;
    80001da2:	4501                	li	a0,0
}
    80001da4:	8082                	ret

0000000080001da6 <uvmcopy>:
  for(i = 0; i < sz; i += PGSIZE){    
    80001da6:	ca4d                	beqz	a2,80001e58 <uvmcopy+0xb2>
{
    80001da8:	715d                	addi	sp,sp,-80
    80001daa:	e486                	sd	ra,72(sp)
    80001dac:	e0a2                	sd	s0,64(sp)
    80001dae:	fc26                	sd	s1,56(sp)
    80001db0:	f84a                	sd	s2,48(sp)
    80001db2:	f44e                	sd	s3,40(sp)
    80001db4:	f052                	sd	s4,32(sp)
    80001db6:	ec56                	sd	s5,24(sp)
    80001db8:	e85a                	sd	s6,16(sp)
    80001dba:	e45e                	sd	s7,8(sp)
    80001dbc:	0880                	addi	s0,sp,80
    80001dbe:	8aaa                	mv	s5,a0
    80001dc0:	8b2e                	mv	s6,a1
    80001dc2:	8a32                	mv	s4,a2
  for(i = 0; i < sz; i += PGSIZE){    
    80001dc4:	4481                	li	s1,0
    80001dc6:	a029                	j	80001dd0 <uvmcopy+0x2a>
    80001dc8:	6785                	lui	a5,0x1
    80001dca:	94be                	add	s1,s1,a5
    80001dcc:	0744fa63          	bgeu	s1,s4,80001e40 <uvmcopy+0x9a>
    if((pte = walk(old, i, 0)) !=0 && (*pte & PTE_V) != 0){
    80001dd0:	4601                	li	a2,0
    80001dd2:	85a6                	mv	a1,s1
    80001dd4:	8556                	mv	a0,s5
    80001dd6:	fffff097          	auipc	ra,0xfffff
    80001dda:	1e0080e7          	jalr	480(ra) # 80000fb6 <walk>
    80001dde:	d56d                	beqz	a0,80001dc8 <uvmcopy+0x22>
    80001de0:	6118                	ld	a4,0(a0)
    80001de2:	00177793          	andi	a5,a4,1
    80001de6:	d3ed                	beqz	a5,80001dc8 <uvmcopy+0x22>
      pa = PTE2PA(*pte);
    80001de8:	00a75593          	srli	a1,a4,0xa
    80001dec:	00c59b93          	slli	s7,a1,0xc
      flags = PTE_FLAGS(*pte);
    80001df0:	3ff77913          	andi	s2,a4,1023
      if((mem = kalloc()) == 0)
    80001df4:	fffff097          	auipc	ra,0xfffff
    80001df8:	cee080e7          	jalr	-786(ra) # 80000ae2 <kalloc>
    80001dfc:	89aa                	mv	s3,a0
    80001dfe:	c515                	beqz	a0,80001e2a <uvmcopy+0x84>
      memmove(mem, (char*)pa, PGSIZE);
    80001e00:	6605                	lui	a2,0x1
    80001e02:	85de                	mv	a1,s7
    80001e04:	fffff097          	auipc	ra,0xfffff
    80001e08:	f26080e7          	jalr	-218(ra) # 80000d2a <memmove>
      if(mappages(new, i, PGSIZE, (uint64)mem, flags) != 0){
    80001e0c:	874a                	mv	a4,s2
    80001e0e:	86ce                	mv	a3,s3
    80001e10:	6605                	lui	a2,0x1
    80001e12:	85a6                	mv	a1,s1
    80001e14:	855a                	mv	a0,s6
    80001e16:	fffff097          	auipc	ra,0xfffff
    80001e1a:	272080e7          	jalr	626(ra) # 80001088 <mappages>
    80001e1e:	d54d                	beqz	a0,80001dc8 <uvmcopy+0x22>
        kfree(mem);
    80001e20:	854e                	mv	a0,s3
    80001e22:	fffff097          	auipc	ra,0xfffff
    80001e26:	bb4080e7          	jalr	-1100(ra) # 800009d6 <kfree>
  uvmunmap(new, 0, i / PGSIZE, 1);
    80001e2a:	4685                	li	a3,1
    80001e2c:	00c4d613          	srli	a2,s1,0xc
    80001e30:	4581                	li	a1,0
    80001e32:	855a                	mv	a0,s6
    80001e34:	00000097          	auipc	ra,0x0
    80001e38:	aa6080e7          	jalr	-1370(ra) # 800018da <uvmunmap>
  return -1;
    80001e3c:	557d                	li	a0,-1
    80001e3e:	a011                	j	80001e42 <uvmcopy+0x9c>
  return 0;
    80001e40:	4501                	li	a0,0
}
    80001e42:	60a6                	ld	ra,72(sp)
    80001e44:	6406                	ld	s0,64(sp)
    80001e46:	74e2                	ld	s1,56(sp)
    80001e48:	7942                	ld	s2,48(sp)
    80001e4a:	79a2                	ld	s3,40(sp)
    80001e4c:	7a02                	ld	s4,32(sp)
    80001e4e:	6ae2                	ld	s5,24(sp)
    80001e50:	6b42                	ld	s6,16(sp)
    80001e52:	6ba2                	ld	s7,8(sp)
    80001e54:	6161                	addi	sp,sp,80
    80001e56:	8082                	ret
  return 0;
    80001e58:	4501                	li	a0,0
}
    80001e5a:	8082                	ret

0000000080001e5c <second_fifo>:
int second_fifo(){
    80001e5c:	7139                	addi	sp,sp,-64
    80001e5e:	fc06                	sd	ra,56(sp)
    80001e60:	f822                	sd	s0,48(sp)
    80001e62:	f426                	sd	s1,40(sp)
    80001e64:	f04a                	sd	s2,32(sp)
    80001e66:	ec4e                	sd	s3,24(sp)
    80001e68:	e852                	sd	s4,16(sp)
    80001e6a:	e456                	sd	s5,8(sp)
    80001e6c:	e05a                	sd	s6,0(sp)
    80001e6e:	0080                	addi	s0,sp,64
  struct proc * p = myproc();
    80001e70:	00000097          	auipc	ra,0x0
    80001e74:	56a080e7          	jalr	1386(ra) # 800023da <myproc>
    80001e78:	84aa                	mv	s1,a0
  struct age_queue * q = &(p->queue);
    80001e7a:	2f050993          	addi	s3,a0,752
  int page_counter = q->page_counter;
    80001e7e:	37852a03          	lw	s4,888(a0)
  for (int i = 0; i<page_counter; i++){
    80001e82:	05405f63          	blez	s4,80001ee0 <second_fifo+0x84>
    80001e86:	4901                	li	s2,0
      printf("removing accsesed bit from %d", current_page);
    80001e88:	00007a97          	auipc	s5,0x7
    80001e8c:	3b8a8a93          	addi	s5,s5,952 # 80009240 <digits+0x200>
    current_page = q->pages[q->front];
    80001e90:	3704a783          	lw	a5,880(s1)
    80001e94:	078a                	slli	a5,a5,0x2
    80001e96:	97a6                	add	a5,a5,s1
    80001e98:	2f07ab03          	lw	s6,752(a5) # 12f0 <_entry-0x7fffed10>
    pte_t * pte = walk(p->pagetable, current_page*PGSIZE,0);
    80001e9c:	4601                	li	a2,0
    80001e9e:	00cb159b          	slliw	a1,s6,0xc
    80001ea2:	68a8                	ld	a0,80(s1)
    80001ea4:	fffff097          	auipc	ra,0xfffff
    80001ea8:	112080e7          	jalr	274(ra) # 80000fb6 <walk>
    uint pte_flags = PTE_FLAGS(*pte);
    80001eac:	611c                	ld	a5,0(a0)
    if(!(pte_flags & PTE_A)){
    80001eae:	0407f713          	andi	a4,a5,64
    80001eb2:	cf29                	beqz	a4,80001f0c <second_fifo+0xb0>
      *pte = *pte & (~PTE_A); //make A bit off
    80001eb4:	fbf7f793          	andi	a5,a5,-65
    80001eb8:	e11c                	sd	a5,0(a0)
      printf("removing accsesed bit from %d", current_page);
    80001eba:	85da                	mv	a1,s6
    80001ebc:	8556                	mv	a0,s5
    80001ebe:	ffffe097          	auipc	ra,0xffffe
    80001ec2:	6b6080e7          	jalr	1718(ra) # 80000574 <printf>
      remove_from_queue(q);
    80001ec6:	854e                	mv	a0,s3
    80001ec8:	00000097          	auipc	ra,0x0
    80001ecc:	970080e7          	jalr	-1680(ra) # 80001838 <remove_from_queue>
      insert_to_queue(current_page);
    80001ed0:	855a                	mv	a0,s6
    80001ed2:	00000097          	auipc	ra,0x0
    80001ed6:	90e080e7          	jalr	-1778(ra) # 800017e0 <insert_to_queue>
  for (int i = 0; i<page_counter; i++){
    80001eda:	2905                	addiw	s2,s2,1
    80001edc:	fb2a1ae3          	bne	s4,s2,80001e90 <second_fifo+0x34>
  current_page = q->pages[q->front];
    80001ee0:	3704a783          	lw	a5,880(s1)
    80001ee4:	078a                	slli	a5,a5,0x2
    80001ee6:	94be                	add	s1,s1,a5
    80001ee8:	2f04ab03          	lw	s6,752(s1)
  remove_from_queue(q);
    80001eec:	854e                	mv	a0,s3
    80001eee:	00000097          	auipc	ra,0x0
    80001ef2:	94a080e7          	jalr	-1718(ra) # 80001838 <remove_from_queue>
}
    80001ef6:	855a                	mv	a0,s6
    80001ef8:	70e2                	ld	ra,56(sp)
    80001efa:	7442                	ld	s0,48(sp)
    80001efc:	74a2                	ld	s1,40(sp)
    80001efe:	7902                	ld	s2,32(sp)
    80001f00:	69e2                	ld	s3,24(sp)
    80001f02:	6a42                	ld	s4,16(sp)
    80001f04:	6aa2                	ld	s5,8(sp)
    80001f06:	6b02                	ld	s6,0(sp)
    80001f08:	6121                	addi	sp,sp,64
    80001f0a:	8082                	ret
      printf("not accsesed %d \n", current_page);
    80001f0c:	85da                	mv	a1,s6
    80001f0e:	00007517          	auipc	a0,0x7
    80001f12:	31a50513          	addi	a0,a0,794 # 80009228 <digits+0x1e8>
    80001f16:	ffffe097          	auipc	ra,0xffffe
    80001f1a:	65e080e7          	jalr	1630(ra) # 80000574 <printf>
      remove_from_queue(q);
    80001f1e:	854e                	mv	a0,s3
    80001f20:	00000097          	auipc	ra,0x0
    80001f24:	918080e7          	jalr	-1768(ra) # 80001838 <remove_from_queue>
      return current_page; //the file will no longer be in the memory and will be removed next time
    80001f28:	b7f9                	j	80001ef6 <second_fifo+0x9a>

0000000080001f2a <swap_page_into_file>:
void swap_page_into_file(int offset){
    80001f2a:	7139                	addi	sp,sp,-64
    80001f2c:	fc06                	sd	ra,56(sp)
    80001f2e:	f822                	sd	s0,48(sp)
    80001f30:	f426                	sd	s1,40(sp)
    80001f32:	f04a                	sd	s2,32(sp)
    80001f34:	ec4e                	sd	s3,24(sp)
    80001f36:	e852                	sd	s4,16(sp)
    80001f38:	e456                	sd	s5,8(sp)
    80001f3a:	0080                	addi	s0,sp,64
    80001f3c:	8aaa                	mv	s5,a0
    struct proc * p = myproc();
    80001f3e:	00000097          	auipc	ra,0x0
    80001f42:	49c080e7          	jalr	1180(ra) # 800023da <myproc>
    80001f46:	84aa                	mv	s1,a0
    return second_fifo(); 
    80001f48:	00000097          	auipc	ra,0x0
    80001f4c:	f14080e7          	jalr	-236(ra) # 80001e5c <second_fifo>
    80001f50:	892a                	mv	s2,a0
    printf("chosen page %d \n", remove_file_indx);
    80001f52:	85aa                	mv	a1,a0
    80001f54:	00007517          	auipc	a0,0x7
    80001f58:	30c50513          	addi	a0,a0,780 # 80009260 <digits+0x220>
    80001f5c:	ffffe097          	auipc	ra,0xffffe
    80001f60:	618080e7          	jalr	1560(ra) # 80000574 <printf>
    pte_t *out_page_entry =  walk(p->pagetable, removed_page_VA, 0); 
    80001f64:	4601                	li	a2,0
    80001f66:	00c9159b          	slliw	a1,s2,0xc
    80001f6a:	68a8                	ld	a0,80(s1)
    80001f6c:	fffff097          	auipc	ra,0xfffff
    80001f70:	04a080e7          	jalr	74(ra) # 80000fb6 <walk>
    80001f74:	8a2a                	mv	s4,a0
    uint64 physical_addr = PTE2PA(*out_page_entry);
    80001f76:	00053983          	ld	s3,0(a0)
    80001f7a:	00a9d993          	srli	s3,s3,0xa
    80001f7e:	09b2                	slli	s3,s3,0xc
    if(writeToSwapFile(p,(char*)physical_addr,offset,PGSIZE) ==  -1)
    80001f80:	6685                	lui	a3,0x1
    80001f82:	8656                	mv	a2,s5
    80001f84:	85ce                	mv	a1,s3
    80001f86:	8526                	mv	a0,s1
    80001f88:	00003097          	auipc	ra,0x3
    80001f8c:	d6a080e7          	jalr	-662(ra) # 80004cf2 <writeToSwapFile>
    80001f90:	57fd                	li	a5,-1
    80001f92:	04f50263          	beq	a0,a5,80001fd6 <swap_page_into_file+0xac>
    kfree((void*)physical_addr);
    80001f96:	854e                	mv	a0,s3
    80001f98:	fffff097          	auipc	ra,0xfffff
    80001f9c:	a3e080e7          	jalr	-1474(ra) # 800009d6 <kfree>
    *out_page_entry = (*out_page_entry & (~PTE_V)) | PTE_PG;
    80001fa0:	000a3783          	ld	a5,0(s4)
    80001fa4:	bfe7f793          	andi	a5,a5,-1026
    80001fa8:	4007e793          	ori	a5,a5,1024
    80001fac:	00fa3023          	sd	a5,0(s4)
    p->paging_meta_data[remove_file_indx].offset = offset;
    80001fb0:	00191793          	slli	a5,s2,0x1
    80001fb4:	01278733          	add	a4,a5,s2
    80001fb8:	070a                	slli	a4,a4,0x2
    80001fba:	9726                	add	a4,a4,s1
    80001fbc:	17572823          	sw	s5,368(a4)
    p->paging_meta_data[remove_file_indx].in_memory = 0;
    80001fc0:	16072c23          	sw	zero,376(a4)
}
    80001fc4:	70e2                	ld	ra,56(sp)
    80001fc6:	7442                	ld	s0,48(sp)
    80001fc8:	74a2                	ld	s1,40(sp)
    80001fca:	7902                	ld	s2,32(sp)
    80001fcc:	69e2                	ld	s3,24(sp)
    80001fce:	6a42                	ld	s4,16(sp)
    80001fd0:	6aa2                	ld	s5,8(sp)
    80001fd2:	6121                	addi	sp,sp,64
    80001fd4:	8082                	ret
      panic("write to file failed");
    80001fd6:	00007517          	auipc	a0,0x7
    80001fda:	2a250513          	addi	a0,a0,674 # 80009278 <digits+0x238>
    80001fde:	ffffe097          	auipc	ra,0xffffe
    80001fe2:	54c080e7          	jalr	1356(ra) # 8000052a <panic>

0000000080001fe6 <page_in>:
void page_in(uint64 faulting_address, pte_t * missing_pte_entry){
    80001fe6:	7139                	addi	sp,sp,-64
    80001fe8:	fc06                	sd	ra,56(sp)
    80001fea:	f822                	sd	s0,48(sp)
    80001fec:	f426                	sd	s1,40(sp)
    80001fee:	f04a                	sd	s2,32(sp)
    80001ff0:	ec4e                	sd	s3,24(sp)
    80001ff2:	e852                	sd	s4,16(sp)
    80001ff4:	e456                	sd	s5,8(sp)
    80001ff6:	0080                	addi	s0,sp,64
    80001ff8:	89ae                	mv	s3,a1
  int current_page_index = PGROUNDDOWN(faulting_address)/PGSIZE;
    80001ffa:	8131                	srli	a0,a0,0xc
    80001ffc:	0005091b          	sext.w	s2,a0
  uint offset = myproc()->paging_meta_data[current_page_index].offset;
    80002000:	00000097          	auipc	ra,0x0
    80002004:	3da080e7          	jalr	986(ra) # 800023da <myproc>
    80002008:	00191793          	slli	a5,s2,0x1
    8000200c:	97ca                	add	a5,a5,s2
    8000200e:	078a                	slli	a5,a5,0x2
    80002010:	97aa                	add	a5,a5,a0
    80002012:	1707aa83          	lw	s5,368(a5)
    80002016:	000a8a1b          	sext.w	s4,s5
  if(offset == -1){
    8000201a:	57fd                	li	a5,-1
    8000201c:	0afa0563          	beq	s4,a5,800020c6 <page_in+0xe0>
  if((read_buffer = kalloc()) == 0)
    80002020:	fffff097          	auipc	ra,0xfffff
    80002024:	ac2080e7          	jalr	-1342(ra) # 80000ae2 <kalloc>
    80002028:	84aa                	mv	s1,a0
    8000202a:	c555                	beqz	a0,800020d6 <page_in+0xf0>
  if (readFromSwapFile(myproc(),read_buffer ,offset,PGSIZE) == -1)
    8000202c:	00000097          	auipc	ra,0x0
    80002030:	3ae080e7          	jalr	942(ra) # 800023da <myproc>
    80002034:	6685                	lui	a3,0x1
    80002036:	8652                	mv	a2,s4
    80002038:	85a6                	mv	a1,s1
    8000203a:	00003097          	auipc	ra,0x3
    8000203e:	cdc080e7          	jalr	-804(ra) # 80004d16 <readFromSwapFile>
    80002042:	57fd                	li	a5,-1
    80002044:	0af50163          	beq	a0,a5,800020e6 <page_in+0x100>
  if(get_num_of_pages_in_memory() >= MAX_PSYC_PAGES){
    80002048:	fffff097          	auipc	ra,0xfffff
    8000204c:	610080e7          	jalr	1552(ra) # 80001658 <get_num_of_pages_in_memory>
    80002050:	47bd                	li	a5,15
    80002052:	0aa7c263          	blt	a5,a0,800020f6 <page_in+0x110>
      *missing_pte_entry = PA2PTE((uint64)read_buffer) | PTE_V; 
    80002056:	80b1                	srli	s1,s1,0xc
    80002058:	04aa                	slli	s1,s1,0xa
    8000205a:	0014e493          	ori	s1,s1,1
    8000205e:	0099b023          	sd	s1,0(s3) # fffffffffffff000 <end+0xffffffff7ffd0000>
  myproc()->paging_meta_data[current_page_index].aging = init_aging(current_page_index);
    80002062:	00000097          	auipc	ra,0x0
    80002066:	378080e7          	jalr	888(ra) # 800023da <myproc>
    8000206a:	89aa                	mv	s3,a0
    return insert_to_queue(fifo_init_pages);
    8000206c:	854a                	mv	a0,s2
    8000206e:	fffff097          	auipc	ra,0xfffff
    80002072:	772080e7          	jalr	1906(ra) # 800017e0 <insert_to_queue>
  myproc()->paging_meta_data[current_page_index].aging = init_aging(current_page_index);
    80002076:	00191493          	slli	s1,s2,0x1
    8000207a:	012487b3          	add	a5,s1,s2
    8000207e:	078a                	slli	a5,a5,0x2
    80002080:	99be                	add	s3,s3,a5
    return insert_to_queue(fifo_init_pages);
    80002082:	16a9aa23          	sw	a0,372(s3)
  myproc()->paging_meta_data[current_page_index].offset = -1;
    80002086:	00000097          	auipc	ra,0x0
    8000208a:	354080e7          	jalr	852(ra) # 800023da <myproc>
    8000208e:	012487b3          	add	a5,s1,s2
    80002092:	078a                	slli	a5,a5,0x2
    80002094:	953e                	add	a0,a0,a5
    80002096:	57fd                	li	a5,-1
    80002098:	16f52823          	sw	a5,368(a0)
  myproc()->paging_meta_data[current_page_index].in_memory = 1;
    8000209c:	00000097          	auipc	ra,0x0
    800020a0:	33e080e7          	jalr	830(ra) # 800023da <myproc>
    800020a4:	94ca                	add	s1,s1,s2
    800020a6:	048a                	slli	s1,s1,0x2
    800020a8:	94aa                	add	s1,s1,a0
    800020aa:	4785                	li	a5,1
    800020ac:	16f4ac23          	sw	a5,376(s1)
    800020b0:	12000073          	sfence.vma
}
    800020b4:	70e2                	ld	ra,56(sp)
    800020b6:	7442                	ld	s0,48(sp)
    800020b8:	74a2                	ld	s1,40(sp)
    800020ba:	7902                	ld	s2,32(sp)
    800020bc:	69e2                	ld	s3,24(sp)
    800020be:	6a42                	ld	s4,16(sp)
    800020c0:	6aa2                	ld	s5,8(sp)
    800020c2:	6121                	addi	sp,sp,64
    800020c4:	8082                	ret
    panic("offset is -1");
    800020c6:	00007517          	auipc	a0,0x7
    800020ca:	1ca50513          	addi	a0,a0,458 # 80009290 <digits+0x250>
    800020ce:	ffffe097          	auipc	ra,0xffffe
    800020d2:	45c080e7          	jalr	1116(ra) # 8000052a <panic>
    panic("not enough space to kalloc");
    800020d6:	00007517          	auipc	a0,0x7
    800020da:	1ca50513          	addi	a0,a0,458 # 800092a0 <digits+0x260>
    800020de:	ffffe097          	auipc	ra,0xffffe
    800020e2:	44c080e7          	jalr	1100(ra) # 8000052a <panic>
    panic("read from file failed");
    800020e6:	00007517          	auipc	a0,0x7
    800020ea:	1da50513          	addi	a0,a0,474 # 800092c0 <digits+0x280>
    800020ee:	ffffe097          	auipc	ra,0xffffe
    800020f2:	43c080e7          	jalr	1084(ra) # 8000052a <panic>
    swap_page_into_file(offset); //maybe adding it in the end of the swap
    800020f6:	8556                	mv	a0,s5
    800020f8:	00000097          	auipc	ra,0x0
    800020fc:	e32080e7          	jalr	-462(ra) # 80001f2a <swap_page_into_file>
    *missing_pte_entry = PA2PTE((uint64)read_buffer) | ((PTE_FLAGS(*missing_pte_entry)& ~PTE_PG) | PTE_V);
    80002100:	80b1                	srli	s1,s1,0xc
    80002102:	04aa                	slli	s1,s1,0xa
    80002104:	0009b783          	ld	a5,0(s3)
    80002108:	3fe7f793          	andi	a5,a5,1022
    8000210c:	8cdd                	or	s1,s1,a5
    8000210e:	0014e493          	ori	s1,s1,1
    80002112:	0099b023          	sd	s1,0(s3)
    80002116:	b7b1                	j	80002062 <page_in+0x7c>

0000000080002118 <check_page_fault>:
void check_page_fault(){
    80002118:	1101                	addi	sp,sp,-32
    8000211a:	ec06                	sd	ra,24(sp)
    8000211c:	e822                	sd	s0,16(sp)
    8000211e:	e426                	sd	s1,8(sp)
    80002120:	e04a                	sd	s2,0(sp)
    80002122:	1000                	addi	s0,sp,32
  asm volatile("csrr %0, stval" : "=r" (x) );
    80002124:	14302973          	csrr	s2,stval
  pte_t * pte_entry = walk(myproc()->pagetable, PGROUNDDOWN(faulting_address), 0); //maybe doesn't have to pagedown 
    80002128:	00000097          	auipc	ra,0x0
    8000212c:	2b2080e7          	jalr	690(ra) # 800023da <myproc>
    80002130:	4601                	li	a2,0
    80002132:	75fd                	lui	a1,0xfffff
    80002134:	00b975b3          	and	a1,s2,a1
    80002138:	6928                	ld	a0,80(a0)
    8000213a:	fffff097          	auipc	ra,0xfffff
    8000213e:	e7c080e7          	jalr	-388(ra) # 80000fb6 <walk>
  if(pte_entry !=0 &&(!(*pte_entry & PTE_V)  && *pte_entry & PTE_PG)){
    80002142:	c909                	beqz	a0,80002154 <check_page_fault+0x3c>
    80002144:	84aa                	mv	s1,a0
    80002146:	611c                	ld	a5,0(a0)
    80002148:	4017f793          	andi	a5,a5,1025
    8000214c:	40000713          	li	a4,1024
    80002150:	02e78463          	beq	a5,a4,80002178 <check_page_fault+0x60>
  else if (faulting_address <= myproc()->sz){
    80002154:	00000097          	auipc	ra,0x0
    80002158:	286080e7          	jalr	646(ra) # 800023da <myproc>
    8000215c:	653c                	ld	a5,72(a0)
    8000215e:	0327ec63          	bltu	a5,s2,80002196 <check_page_fault+0x7e>
    lazy_memory_allocation(faulting_address);
    80002162:	854a                	mv	a0,s2
    80002164:	00000097          	auipc	ra,0x0
    80002168:	b08080e7          	jalr	-1272(ra) # 80001c6c <lazy_memory_allocation>
}
    8000216c:	60e2                	ld	ra,24(sp)
    8000216e:	6442                	ld	s0,16(sp)
    80002170:	64a2                	ld	s1,8(sp)
    80002172:	6902                	ld	s2,0(sp)
    80002174:	6105                	addi	sp,sp,32
    80002176:	8082                	ret
    printf("Page Fault - Page was out of memory\n");
    80002178:	00007517          	auipc	a0,0x7
    8000217c:	16050513          	addi	a0,a0,352 # 800092d8 <digits+0x298>
    80002180:	ffffe097          	auipc	ra,0xffffe
    80002184:	3f4080e7          	jalr	1012(ra) # 80000574 <printf>
    page_in(faulting_address, pte_entry);
    80002188:	85a6                	mv	a1,s1
    8000218a:	854a                	mv	a0,s2
    8000218c:	00000097          	auipc	ra,0x0
    80002190:	e5a080e7          	jalr	-422(ra) # 80001fe6 <page_in>
    80002194:	bfe1                	j	8000216c <check_page_fault+0x54>
    exit(-1);
    80002196:	557d                	li	a0,-1
    80002198:	00001097          	auipc	ra,0x1
    8000219c:	d46080e7          	jalr	-698(ra) # 80002ede <exit>
}
    800021a0:	b7f1                	j	8000216c <check_page_fault+0x54>

00000000800021a2 <find_file_to_remove>:
int find_file_to_remove(){
    800021a2:	1141                	addi	sp,sp,-16
    800021a4:	e406                	sd	ra,8(sp)
    800021a6:	e022                	sd	s0,0(sp)
    800021a8:	0800                	addi	s0,sp,16
    return second_fifo(); 
    800021aa:	00000097          	auipc	ra,0x0
    800021ae:	cb2080e7          	jalr	-846(ra) # 80001e5c <second_fifo>
}
    800021b2:	60a2                	ld	ra,8(sp)
    800021b4:	6402                	ld	s0,0(sp)
    800021b6:	0141                	addi	sp,sp,16
    800021b8:	8082                	ret

00000000800021ba <shift_counter>:
void shift_counter(){
    800021ba:	7139                	addi	sp,sp,-64
    800021bc:	fc06                	sd	ra,56(sp)
    800021be:	f822                	sd	s0,48(sp)
    800021c0:	f426                	sd	s1,40(sp)
    800021c2:	f04a                	sd	s2,32(sp)
    800021c4:	ec4e                	sd	s3,24(sp)
    800021c6:	e852                	sd	s4,16(sp)
    800021c8:	e456                	sd	s5,8(sp)
    800021ca:	0080                	addi	s0,sp,64
 struct proc * p = myproc();
    800021cc:	00000097          	auipc	ra,0x0
    800021d0:	20e080e7          	jalr	526(ra) # 800023da <myproc>
 for(int i=0; i<32; i++){
    800021d4:	17450913          	addi	s2,a0,372
 struct proc * p = myproc();
    800021d8:	4481                	li	s1,0
          p->paging_meta_data[i].aging = p->paging_meta_data[i].aging | SHIFT_ON;
    800021da:	80000ab7          	lui	s5,0x80000
 for(int i=0; i<32; i++){
    800021de:	6a05                	lui	s4,0x1
    800021e0:	000209b7          	lui	s3,0x20
    800021e4:	a029                	j	800021ee <shift_counter+0x34>
    800021e6:	94d2                	add	s1,s1,s4
    800021e8:	0931                	addi	s2,s2,12
    800021ea:	05348363          	beq	s1,s3,80002230 <shift_counter+0x76>
      pte = walk(myproc()->pagetable, page_virtual_address, 0);
    800021ee:	00000097          	auipc	ra,0x0
    800021f2:	1ec080e7          	jalr	492(ra) # 800023da <myproc>
    800021f6:	4601                	li	a2,0
    800021f8:	85a6                	mv	a1,s1
    800021fa:	6928                	ld	a0,80(a0)
    800021fc:	fffff097          	auipc	ra,0xfffff
    80002200:	dba080e7          	jalr	-582(ra) # 80000fb6 <walk>
      if(*pte & PTE_V){
    80002204:	611c                	ld	a5,0(a0)
    80002206:	8b85                	andi	a5,a5,1
    80002208:	dff9                	beqz	a5,800021e6 <shift_counter+0x2c>
        p->paging_meta_data[i].aging = p->paging_meta_data[i].aging>>1;
    8000220a:	00092783          	lw	a5,0(s2)
    8000220e:	0017d79b          	srliw	a5,a5,0x1
    80002212:	00f92023          	sw	a5,0(s2)
        if(*pte & PTE_A){
    80002216:	6118                	ld	a4,0(a0)
    80002218:	04077713          	andi	a4,a4,64
    8000221c:	d769                	beqz	a4,800021e6 <shift_counter+0x2c>
          p->paging_meta_data[i].aging = p->paging_meta_data[i].aging | SHIFT_ON;
    8000221e:	0157e7b3          	or	a5,a5,s5
    80002222:	00f92023          	sw	a5,0(s2)
          *pte = *pte & (~PTE_A); //turn off
    80002226:	611c                	ld	a5,0(a0)
    80002228:	fbf7f793          	andi	a5,a5,-65
    8000222c:	e11c                	sd	a5,0(a0)
    8000222e:	bf65                	j	800021e6 <shift_counter+0x2c>
}
    80002230:	70e2                	ld	ra,56(sp)
    80002232:	7442                	ld	s0,48(sp)
    80002234:	74a2                	ld	s1,40(sp)
    80002236:	7902                	ld	s2,32(sp)
    80002238:	69e2                	ld	s3,24(sp)
    8000223a:	6a42                	ld	s4,16(sp)
    8000223c:	6aa2                	ld	s5,8(sp)
    8000223e:	6121                	addi	sp,sp,64
    80002240:	8082                	ret

0000000080002242 <update_aging_algorithms>:
update_aging_algorithms(void){
    80002242:	1141                	addi	sp,sp,-16
    80002244:	e422                	sd	s0,8(sp)
    80002246:	0800                	addi	s0,sp,16
}
    80002248:	6422                	ld	s0,8(sp)
    8000224a:	0141                	addi	sp,sp,16
    8000224c:	8082                	ret

000000008000224e <init_aging>:
uint init_aging(int fifo_init_pages){
    8000224e:	1141                	addi	sp,sp,-16
    80002250:	e406                	sd	ra,8(sp)
    80002252:	e022                	sd	s0,0(sp)
    80002254:	0800                	addi	s0,sp,16
    return insert_to_queue(fifo_init_pages);
    80002256:	fffff097          	auipc	ra,0xfffff
    8000225a:	58a080e7          	jalr	1418(ra) # 800017e0 <insert_to_queue>
  #endif 
  return 0;
}
    8000225e:	2501                	sext.w	a0,a0
    80002260:	60a2                	ld	ra,8(sp)
    80002262:	6402                	ld	s0,0(sp)
    80002264:	0141                	addi	sp,sp,16
    80002266:	8082                	ret

0000000080002268 <proc_mapstacks>:

// Allocate a page for each process's kernel stack.
// Map it high in memory, followed by an invalid
// guard page.
void
proc_mapstacks(pagetable_t kpgtbl) {
    80002268:	7139                	addi	sp,sp,-64
    8000226a:	fc06                	sd	ra,56(sp)
    8000226c:	f822                	sd	s0,48(sp)
    8000226e:	f426                	sd	s1,40(sp)
    80002270:	f04a                	sd	s2,32(sp)
    80002272:	ec4e                	sd	s3,24(sp)
    80002274:	e852                	sd	s4,16(sp)
    80002276:	e456                	sd	s5,8(sp)
    80002278:	e05a                	sd	s6,0(sp)
    8000227a:	0080                	addi	s0,sp,64
    8000227c:	89aa                	mv	s3,a0
  struct proc *p;
  
  for(p = proc; p < &proc[NPROC]; p++) {
    8000227e:	00010497          	auipc	s1,0x10
    80002282:	45248493          	addi	s1,s1,1106 # 800126d0 <proc>
    char *pa = kalloc();
    if(pa == 0)
      panic("kalloc");
    uint64 va = KSTACK((int) (p - proc));
    80002286:	8b26                	mv	s6,s1
    80002288:	00007a97          	auipc	s5,0x7
    8000228c:	d78a8a93          	addi	s5,s5,-648 # 80009000 <etext>
    80002290:	04000937          	lui	s2,0x4000
    80002294:	197d                	addi	s2,s2,-1
    80002296:	0932                	slli	s2,s2,0xc
  for(p = proc; p < &proc[NPROC]; p++) {
    80002298:	0001ea17          	auipc	s4,0x1e
    8000229c:	438a0a13          	addi	s4,s4,1080 # 800206d0 <tickslock>
    char *pa = kalloc();
    800022a0:	fffff097          	auipc	ra,0xfffff
    800022a4:	842080e7          	jalr	-1982(ra) # 80000ae2 <kalloc>
    800022a8:	862a                	mv	a2,a0
    if(pa == 0)
    800022aa:	c131                	beqz	a0,800022ee <proc_mapstacks+0x86>
    uint64 va = KSTACK((int) (p - proc));
    800022ac:	416485b3          	sub	a1,s1,s6
    800022b0:	859d                	srai	a1,a1,0x7
    800022b2:	000ab783          	ld	a5,0(s5)
    800022b6:	02f585b3          	mul	a1,a1,a5
    800022ba:	2585                	addiw	a1,a1,1
    800022bc:	00d5959b          	slliw	a1,a1,0xd
    kvmmap(kpgtbl, va, (uint64)pa, PGSIZE, PTE_R | PTE_W);
    800022c0:	4719                	li	a4,6
    800022c2:	6685                	lui	a3,0x1
    800022c4:	40b905b3          	sub	a1,s2,a1
    800022c8:	854e                	mv	a0,s3
    800022ca:	fffff097          	auipc	ra,0xfffff
    800022ce:	e4c080e7          	jalr	-436(ra) # 80001116 <kvmmap>
  for(p = proc; p < &proc[NPROC]; p++) {
    800022d2:	38048493          	addi	s1,s1,896
    800022d6:	fd4495e3          	bne	s1,s4,800022a0 <proc_mapstacks+0x38>
  }
}
    800022da:	70e2                	ld	ra,56(sp)
    800022dc:	7442                	ld	s0,48(sp)
    800022de:	74a2                	ld	s1,40(sp)
    800022e0:	7902                	ld	s2,32(sp)
    800022e2:	69e2                	ld	s3,24(sp)
    800022e4:	6a42                	ld	s4,16(sp)
    800022e6:	6aa2                	ld	s5,8(sp)
    800022e8:	6b02                	ld	s6,0(sp)
    800022ea:	6121                	addi	sp,sp,64
    800022ec:	8082                	ret
      panic("kalloc");
    800022ee:	00007517          	auipc	a0,0x7
    800022f2:	01250513          	addi	a0,a0,18 # 80009300 <digits+0x2c0>
    800022f6:	ffffe097          	auipc	ra,0xffffe
    800022fa:	234080e7          	jalr	564(ra) # 8000052a <panic>

00000000800022fe <procinit>:

// initialize the proc table at boot time.
void
procinit(void)
{
    800022fe:	7139                	addi	sp,sp,-64
    80002300:	fc06                	sd	ra,56(sp)
    80002302:	f822                	sd	s0,48(sp)
    80002304:	f426                	sd	s1,40(sp)
    80002306:	f04a                	sd	s2,32(sp)
    80002308:	ec4e                	sd	s3,24(sp)
    8000230a:	e852                	sd	s4,16(sp)
    8000230c:	e456                	sd	s5,8(sp)
    8000230e:	e05a                	sd	s6,0(sp)
    80002310:	0080                	addi	s0,sp,64
  struct proc *p;
  
  initlock(&pid_lock, "nextpid");
    80002312:	00007597          	auipc	a1,0x7
    80002316:	ff658593          	addi	a1,a1,-10 # 80009308 <digits+0x2c8>
    8000231a:	00010517          	auipc	a0,0x10
    8000231e:	f8650513          	addi	a0,a0,-122 # 800122a0 <pid_lock>
    80002322:	fffff097          	auipc	ra,0xfffff
    80002326:	820080e7          	jalr	-2016(ra) # 80000b42 <initlock>
  initlock(&wait_lock, "wait_lock");
    8000232a:	00007597          	auipc	a1,0x7
    8000232e:	fe658593          	addi	a1,a1,-26 # 80009310 <digits+0x2d0>
    80002332:	00010517          	auipc	a0,0x10
    80002336:	f8650513          	addi	a0,a0,-122 # 800122b8 <wait_lock>
    8000233a:	fffff097          	auipc	ra,0xfffff
    8000233e:	808080e7          	jalr	-2040(ra) # 80000b42 <initlock>
  for(p = proc; p < &proc[NPROC]; p++) {
    80002342:	00010497          	auipc	s1,0x10
    80002346:	38e48493          	addi	s1,s1,910 # 800126d0 <proc>
      initlock(&p->lock, "proc");
    8000234a:	00007b17          	auipc	s6,0x7
    8000234e:	fd6b0b13          	addi	s6,s6,-42 # 80009320 <digits+0x2e0>
      p->kstack = KSTACK((int) (p - proc));
    80002352:	8aa6                	mv	s5,s1
    80002354:	00007a17          	auipc	s4,0x7
    80002358:	caca0a13          	addi	s4,s4,-852 # 80009000 <etext>
    8000235c:	04000937          	lui	s2,0x4000
    80002360:	197d                	addi	s2,s2,-1
    80002362:	0932                	slli	s2,s2,0xc
  for(p = proc; p < &proc[NPROC]; p++) {
    80002364:	0001e997          	auipc	s3,0x1e
    80002368:	36c98993          	addi	s3,s3,876 # 800206d0 <tickslock>
      initlock(&p->lock, "proc");
    8000236c:	85da                	mv	a1,s6
    8000236e:	8526                	mv	a0,s1
    80002370:	ffffe097          	auipc	ra,0xffffe
    80002374:	7d2080e7          	jalr	2002(ra) # 80000b42 <initlock>
      p->kstack = KSTACK((int) (p - proc));
    80002378:	415487b3          	sub	a5,s1,s5
    8000237c:	879d                	srai	a5,a5,0x7
    8000237e:	000a3703          	ld	a4,0(s4)
    80002382:	02e787b3          	mul	a5,a5,a4
    80002386:	2785                	addiw	a5,a5,1
    80002388:	00d7979b          	slliw	a5,a5,0xd
    8000238c:	40f907b3          	sub	a5,s2,a5
    80002390:	e0bc                	sd	a5,64(s1)
  for(p = proc; p < &proc[NPROC]; p++) {
    80002392:	38048493          	addi	s1,s1,896
    80002396:	fd349be3          	bne	s1,s3,8000236c <procinit+0x6e>
  }
}
    8000239a:	70e2                	ld	ra,56(sp)
    8000239c:	7442                	ld	s0,48(sp)
    8000239e:	74a2                	ld	s1,40(sp)
    800023a0:	7902                	ld	s2,32(sp)
    800023a2:	69e2                	ld	s3,24(sp)
    800023a4:	6a42                	ld	s4,16(sp)
    800023a6:	6aa2                	ld	s5,8(sp)
    800023a8:	6b02                	ld	s6,0(sp)
    800023aa:	6121                	addi	sp,sp,64
    800023ac:	8082                	ret

00000000800023ae <cpuid>:
// Must be called with interrupts disabled,
// to prevent race with process being moved
// to a different CPU.
int
cpuid()
{
    800023ae:	1141                	addi	sp,sp,-16
    800023b0:	e422                	sd	s0,8(sp)
    800023b2:	0800                	addi	s0,sp,16
  asm volatile("mv %0, tp" : "=r" (x) );
    800023b4:	8512                	mv	a0,tp
  int id = r_tp();
  return id;
}
    800023b6:	2501                	sext.w	a0,a0
    800023b8:	6422                	ld	s0,8(sp)
    800023ba:	0141                	addi	sp,sp,16
    800023bc:	8082                	ret

00000000800023be <mycpu>:

// Return this CPU's cpu struct.
// Interrupts must be disabled.
struct cpu*
mycpu(void) {
    800023be:	1141                	addi	sp,sp,-16
    800023c0:	e422                	sd	s0,8(sp)
    800023c2:	0800                	addi	s0,sp,16
    800023c4:	8792                	mv	a5,tp
  int id = cpuid();
  struct cpu *c = &cpus[id];
    800023c6:	2781                	sext.w	a5,a5
    800023c8:	079e                	slli	a5,a5,0x7
  return c;
}
    800023ca:	00010517          	auipc	a0,0x10
    800023ce:	f0650513          	addi	a0,a0,-250 # 800122d0 <cpus>
    800023d2:	953e                	add	a0,a0,a5
    800023d4:	6422                	ld	s0,8(sp)
    800023d6:	0141                	addi	sp,sp,16
    800023d8:	8082                	ret

00000000800023da <myproc>:

// Return the current struct proc *, or zero if none.
struct proc*
myproc(void) {
    800023da:	1101                	addi	sp,sp,-32
    800023dc:	ec06                	sd	ra,24(sp)
    800023de:	e822                	sd	s0,16(sp)
    800023e0:	e426                	sd	s1,8(sp)
    800023e2:	1000                	addi	s0,sp,32
  push_off();
    800023e4:	ffffe097          	auipc	ra,0xffffe
    800023e8:	7a2080e7          	jalr	1954(ra) # 80000b86 <push_off>
    800023ec:	8792                	mv	a5,tp
  struct cpu *c = mycpu();
  struct proc *p = c->proc;
    800023ee:	2781                	sext.w	a5,a5
    800023f0:	079e                	slli	a5,a5,0x7
    800023f2:	00010717          	auipc	a4,0x10
    800023f6:	eae70713          	addi	a4,a4,-338 # 800122a0 <pid_lock>
    800023fa:	97ba                	add	a5,a5,a4
    800023fc:	7b84                	ld	s1,48(a5)
  pop_off();
    800023fe:	fffff097          	auipc	ra,0xfffff
    80002402:	828080e7          	jalr	-2008(ra) # 80000c26 <pop_off>
  return p;
}
    80002406:	8526                	mv	a0,s1
    80002408:	60e2                	ld	ra,24(sp)
    8000240a:	6442                	ld	s0,16(sp)
    8000240c:	64a2                	ld	s1,8(sp)
    8000240e:	6105                	addi	sp,sp,32
    80002410:	8082                	ret

0000000080002412 <forkret>:

// A fork child's very first scheduling by scheduler()
// will swtch to forkret.
void
forkret(void)
{
    80002412:	1141                	addi	sp,sp,-16
    80002414:	e406                	sd	ra,8(sp)
    80002416:	e022                	sd	s0,0(sp)
    80002418:	0800                	addi	s0,sp,16
  static int first = 1;

  // Still holding p->lock from scheduler.
  release(&myproc()->lock);
    8000241a:	00000097          	auipc	ra,0x0
    8000241e:	fc0080e7          	jalr	-64(ra) # 800023da <myproc>
    80002422:	fffff097          	auipc	ra,0xfffff
    80002426:	864080e7          	jalr	-1948(ra) # 80000c86 <release>

  if (first) {
    8000242a:	00007797          	auipc	a5,0x7
    8000242e:	5b67a783          	lw	a5,1462(a5) # 800099e0 <first.1>
    80002432:	eb89                	bnez	a5,80002444 <forkret+0x32>
    // be run from main().
    first = 0;
    fsinit(ROOTDEV);
  }

  usertrapret();
    80002434:	00001097          	auipc	ra,0x1
    80002438:	e0e080e7          	jalr	-498(ra) # 80003242 <usertrapret>
}
    8000243c:	60a2                	ld	ra,8(sp)
    8000243e:	6402                	ld	s0,0(sp)
    80002440:	0141                	addi	sp,sp,16
    80002442:	8082                	ret
    first = 0;
    80002444:	00007797          	auipc	a5,0x7
    80002448:	5807ae23          	sw	zero,1436(a5) # 800099e0 <first.1>
    fsinit(ROOTDEV);
    8000244c:	4505                	li	a0,1
    8000244e:	00002097          	auipc	ra,0x2
    80002452:	b54080e7          	jalr	-1196(ra) # 80003fa2 <fsinit>
    80002456:	bff9                	j	80002434 <forkret+0x22>

0000000080002458 <allocpid>:
allocpid() {
    80002458:	1101                	addi	sp,sp,-32
    8000245a:	ec06                	sd	ra,24(sp)
    8000245c:	e822                	sd	s0,16(sp)
    8000245e:	e426                	sd	s1,8(sp)
    80002460:	e04a                	sd	s2,0(sp)
    80002462:	1000                	addi	s0,sp,32
  acquire(&pid_lock);
    80002464:	00010917          	auipc	s2,0x10
    80002468:	e3c90913          	addi	s2,s2,-452 # 800122a0 <pid_lock>
    8000246c:	854a                	mv	a0,s2
    8000246e:	ffffe097          	auipc	ra,0xffffe
    80002472:	764080e7          	jalr	1892(ra) # 80000bd2 <acquire>
  pid = nextpid;
    80002476:	00007797          	auipc	a5,0x7
    8000247a:	56e78793          	addi	a5,a5,1390 # 800099e4 <nextpid>
    8000247e:	4384                	lw	s1,0(a5)
  nextpid = nextpid + 1;
    80002480:	0014871b          	addiw	a4,s1,1
    80002484:	c398                	sw	a4,0(a5)
  release(&pid_lock);
    80002486:	854a                	mv	a0,s2
    80002488:	ffffe097          	auipc	ra,0xffffe
    8000248c:	7fe080e7          	jalr	2046(ra) # 80000c86 <release>
}
    80002490:	8526                	mv	a0,s1
    80002492:	60e2                	ld	ra,24(sp)
    80002494:	6442                	ld	s0,16(sp)
    80002496:	64a2                	ld	s1,8(sp)
    80002498:	6902                	ld	s2,0(sp)
    8000249a:	6105                	addi	sp,sp,32
    8000249c:	8082                	ret

000000008000249e <proc_pagetable>:
{
    8000249e:	1101                	addi	sp,sp,-32
    800024a0:	ec06                	sd	ra,24(sp)
    800024a2:	e822                	sd	s0,16(sp)
    800024a4:	e426                	sd	s1,8(sp)
    800024a6:	e04a                	sd	s2,0(sp)
    800024a8:	1000                	addi	s0,sp,32
    800024aa:	892a                	mv	s2,a0
  pagetable = uvmcreate();
    800024ac:	fffff097          	auipc	ra,0xfffff
    800024b0:	e54080e7          	jalr	-428(ra) # 80001300 <uvmcreate>
    800024b4:	84aa                	mv	s1,a0
  if(pagetable == 0)
    800024b6:	c121                	beqz	a0,800024f6 <proc_pagetable+0x58>
  if(mappages(pagetable, TRAMPOLINE, PGSIZE,
    800024b8:	4729                	li	a4,10
    800024ba:	00006697          	auipc	a3,0x6
    800024be:	b4668693          	addi	a3,a3,-1210 # 80008000 <_trampoline>
    800024c2:	6605                	lui	a2,0x1
    800024c4:	040005b7          	lui	a1,0x4000
    800024c8:	15fd                	addi	a1,a1,-1
    800024ca:	05b2                	slli	a1,a1,0xc
    800024cc:	fffff097          	auipc	ra,0xfffff
    800024d0:	bbc080e7          	jalr	-1092(ra) # 80001088 <mappages>
    800024d4:	02054863          	bltz	a0,80002504 <proc_pagetable+0x66>
  if(mappages(pagetable, TRAPFRAME, PGSIZE,
    800024d8:	4719                	li	a4,6
    800024da:	05893683          	ld	a3,88(s2)
    800024de:	6605                	lui	a2,0x1
    800024e0:	020005b7          	lui	a1,0x2000
    800024e4:	15fd                	addi	a1,a1,-1
    800024e6:	05b6                	slli	a1,a1,0xd
    800024e8:	8526                	mv	a0,s1
    800024ea:	fffff097          	auipc	ra,0xfffff
    800024ee:	b9e080e7          	jalr	-1122(ra) # 80001088 <mappages>
    800024f2:	02054163          	bltz	a0,80002514 <proc_pagetable+0x76>
}
    800024f6:	8526                	mv	a0,s1
    800024f8:	60e2                	ld	ra,24(sp)
    800024fa:	6442                	ld	s0,16(sp)
    800024fc:	64a2                	ld	s1,8(sp)
    800024fe:	6902                	ld	s2,0(sp)
    80002500:	6105                	addi	sp,sp,32
    80002502:	8082                	ret
    uvmfree(pagetable, 0);
    80002504:	4581                	li	a1,0
    80002506:	8526                	mv	a0,s1
    80002508:	fffff097          	auipc	ra,0xfffff
    8000250c:	794080e7          	jalr	1940(ra) # 80001c9c <uvmfree>
    return 0;
    80002510:	4481                	li	s1,0
    80002512:	b7d5                	j	800024f6 <proc_pagetable+0x58>
    uvmunmap(pagetable, TRAMPOLINE, 1, 0);
    80002514:	4681                	li	a3,0
    80002516:	4605                	li	a2,1
    80002518:	040005b7          	lui	a1,0x4000
    8000251c:	15fd                	addi	a1,a1,-1
    8000251e:	05b2                	slli	a1,a1,0xc
    80002520:	8526                	mv	a0,s1
    80002522:	fffff097          	auipc	ra,0xfffff
    80002526:	3b8080e7          	jalr	952(ra) # 800018da <uvmunmap>
    uvmfree(pagetable, 0);
    8000252a:	4581                	li	a1,0
    8000252c:	8526                	mv	a0,s1
    8000252e:	fffff097          	auipc	ra,0xfffff
    80002532:	76e080e7          	jalr	1902(ra) # 80001c9c <uvmfree>
    return 0;
    80002536:	4481                	li	s1,0
    80002538:	bf7d                	j	800024f6 <proc_pagetable+0x58>

000000008000253a <proc_freepagetable>:
{
    8000253a:	1101                	addi	sp,sp,-32
    8000253c:	ec06                	sd	ra,24(sp)
    8000253e:	e822                	sd	s0,16(sp)
    80002540:	e426                	sd	s1,8(sp)
    80002542:	e04a                	sd	s2,0(sp)
    80002544:	1000                	addi	s0,sp,32
    80002546:	84aa                	mv	s1,a0
    80002548:	892e                	mv	s2,a1
  uvmunmap(pagetable, TRAMPOLINE, 1, 0);
    8000254a:	4681                	li	a3,0
    8000254c:	4605                	li	a2,1
    8000254e:	040005b7          	lui	a1,0x4000
    80002552:	15fd                	addi	a1,a1,-1
    80002554:	05b2                	slli	a1,a1,0xc
    80002556:	fffff097          	auipc	ra,0xfffff
    8000255a:	384080e7          	jalr	900(ra) # 800018da <uvmunmap>
  uvmunmap(pagetable, TRAPFRAME, 1, 0);
    8000255e:	4681                	li	a3,0
    80002560:	4605                	li	a2,1
    80002562:	020005b7          	lui	a1,0x2000
    80002566:	15fd                	addi	a1,a1,-1
    80002568:	05b6                	slli	a1,a1,0xd
    8000256a:	8526                	mv	a0,s1
    8000256c:	fffff097          	auipc	ra,0xfffff
    80002570:	36e080e7          	jalr	878(ra) # 800018da <uvmunmap>
  uvmfree(pagetable, sz);
    80002574:	85ca                	mv	a1,s2
    80002576:	8526                	mv	a0,s1
    80002578:	fffff097          	auipc	ra,0xfffff
    8000257c:	724080e7          	jalr	1828(ra) # 80001c9c <uvmfree>
}
    80002580:	60e2                	ld	ra,24(sp)
    80002582:	6442                	ld	s0,16(sp)
    80002584:	64a2                	ld	s1,8(sp)
    80002586:	6902                	ld	s2,0(sp)
    80002588:	6105                	addi	sp,sp,32
    8000258a:	8082                	ret

000000008000258c <freeproc>:
{ 
    8000258c:	1101                	addi	sp,sp,-32
    8000258e:	ec06                	sd	ra,24(sp)
    80002590:	e822                	sd	s0,16(sp)
    80002592:	e426                	sd	s1,8(sp)
    80002594:	1000                	addi	s0,sp,32
    80002596:	84aa                	mv	s1,a0
  if(p->trapframe)
    80002598:	6d28                	ld	a0,88(a0)
    8000259a:	c509                	beqz	a0,800025a4 <freeproc+0x18>
    kfree((void*)p->trapframe);
    8000259c:	ffffe097          	auipc	ra,0xffffe
    800025a0:	43a080e7          	jalr	1082(ra) # 800009d6 <kfree>
  p->trapframe = 0;
    800025a4:	0404bc23          	sd	zero,88(s1)
  if(p->pagetable)
    800025a8:	68a8                	ld	a0,80(s1)
    800025aa:	c511                	beqz	a0,800025b6 <freeproc+0x2a>
    proc_freepagetable(p->pagetable, p->sz);
    800025ac:	64ac                	ld	a1,72(s1)
    800025ae:	00000097          	auipc	ra,0x0
    800025b2:	f8c080e7          	jalr	-116(ra) # 8000253a <proc_freepagetable>
  p->pagetable = 0;
    800025b6:	0404b823          	sd	zero,80(s1)
  p->sz = 0;
    800025ba:	0404b423          	sd	zero,72(s1)
  p->pid = 0;
    800025be:	0204a823          	sw	zero,48(s1)
  p->parent = 0;
    800025c2:	0204bc23          	sd	zero,56(s1)
  p->name[0] = 0;
    800025c6:	14048c23          	sb	zero,344(s1)
  p->chan = 0;
    800025ca:	0204b023          	sd	zero,32(s1)
  p->killed = 0;
    800025ce:	0204a423          	sw	zero,40(s1)
  p->xstate = 0;
    800025d2:	0204a623          	sw	zero,44(s1)
  p->state = UNUSED;
    800025d6:	0004ac23          	sw	zero,24(s1)
}
    800025da:	60e2                	ld	ra,24(sp)
    800025dc:	6442                	ld	s0,16(sp)
    800025de:	64a2                	ld	s1,8(sp)
    800025e0:	6105                	addi	sp,sp,32
    800025e2:	8082                	ret

00000000800025e4 <allocproc>:
{
    800025e4:	7179                	addi	sp,sp,-48
    800025e6:	f406                	sd	ra,40(sp)
    800025e8:	f022                	sd	s0,32(sp)
    800025ea:	ec26                	sd	s1,24(sp)
    800025ec:	e84a                	sd	s2,16(sp)
    800025ee:	e44e                	sd	s3,8(sp)
    800025f0:	1800                	addi	s0,sp,48
  for(p = proc; p < &proc[NPROC]; p++) {
    800025f2:	00010497          	auipc	s1,0x10
    800025f6:	0de48493          	addi	s1,s1,222 # 800126d0 <proc>
    800025fa:	0001e997          	auipc	s3,0x1e
    800025fe:	0d698993          	addi	s3,s3,214 # 800206d0 <tickslock>
    acquire(&p->lock);
    80002602:	8926                	mv	s2,s1
    80002604:	8526                	mv	a0,s1
    80002606:	ffffe097          	auipc	ra,0xffffe
    8000260a:	5cc080e7          	jalr	1484(ra) # 80000bd2 <acquire>
    if(p->state == UNUSED) {
    8000260e:	4c9c                	lw	a5,24(s1)
    80002610:	cf81                	beqz	a5,80002628 <allocproc+0x44>
      release(&p->lock);
    80002612:	8526                	mv	a0,s1
    80002614:	ffffe097          	auipc	ra,0xffffe
    80002618:	672080e7          	jalr	1650(ra) # 80000c86 <release>
  for(p = proc; p < &proc[NPROC]; p++) {
    8000261c:	38048493          	addi	s1,s1,896
    80002620:	ff3491e3          	bne	s1,s3,80002602 <allocproc+0x1e>
  return 0;
    80002624:	4481                	li	s1,0
    80002626:	a061                	j	800026ae <allocproc+0xca>
  p->pid = allocpid();
    80002628:	00000097          	auipc	ra,0x0
    8000262c:	e30080e7          	jalr	-464(ra) # 80002458 <allocpid>
    80002630:	d888                	sw	a0,48(s1)
  p->state = USED;
    80002632:	4785                	li	a5,1
    80002634:	cc9c                	sw	a5,24(s1)
  if((p->trapframe = (struct trapframe *)kalloc()) == 0){
    80002636:	ffffe097          	auipc	ra,0xffffe
    8000263a:	4ac080e7          	jalr	1196(ra) # 80000ae2 <kalloc>
    8000263e:	89aa                	mv	s3,a0
    80002640:	eca8                	sd	a0,88(s1)
    80002642:	cd35                	beqz	a0,800026be <allocproc+0xda>
  p->pagetable = proc_pagetable(p);
    80002644:	8526                	mv	a0,s1
    80002646:	00000097          	auipc	ra,0x0
    8000264a:	e58080e7          	jalr	-424(ra) # 8000249e <proc_pagetable>
    8000264e:	89aa                	mv	s3,a0
    80002650:	e8a8                	sd	a0,80(s1)
  if(p->pagetable == 0){
    80002652:	c151                	beqz	a0,800026d6 <allocproc+0xf2>
  memset(&p->context, 0, sizeof(p->context));
    80002654:	07000613          	li	a2,112
    80002658:	4581                	li	a1,0
    8000265a:	06048513          	addi	a0,s1,96
    8000265e:	ffffe097          	auipc	ra,0xffffe
    80002662:	670080e7          	jalr	1648(ra) # 80000cce <memset>
  p->context.ra = (uint64)forkret;
    80002666:	00000797          	auipc	a5,0x0
    8000266a:	dac78793          	addi	a5,a5,-596 # 80002412 <forkret>
    8000266e:	f0bc                	sd	a5,96(s1)
  p->context.sp = p->kstack + PGSIZE;
    80002670:	60bc                	ld	a5,64(s1)
    80002672:	6705                	lui	a4,0x1
    80002674:	97ba                	add	a5,a5,a4
    80002676:	f4bc                	sd	a5,104(s1)
  for(int i=0;i<32;i++){
    80002678:	17048793          	addi	a5,s1,368
    8000267c:	2f048693          	addi	a3,s1,752
    p->paging_meta_data[i].offset = -1;
    80002680:	577d                	li	a4,-1
    80002682:	c398                	sw	a4,0(a5)
    p->paging_meta_data[i].aging = 0;
    80002684:	0007a223          	sw	zero,4(a5)
    p->paging_meta_data[i].in_memory = 0;
    80002688:	0007a423          	sw	zero,8(a5)
  for(int i=0;i<32;i++){
    8000268c:	07b1                	addi	a5,a5,12
    8000268e:	fed79ae3          	bne	a5,a3,80002682 <allocproc+0x9e>
  p->queue.front = 0;
    80002692:	3604a823          	sw	zero,880(s1)
  p->queue.last = -1;
    80002696:	57fd                	li	a5,-1
    80002698:	36f4aa23          	sw	a5,884(s1)
  for(int i=0; i<32; i++){
    8000269c:	2f048793          	addi	a5,s1,752
    800026a0:	37090713          	addi	a4,s2,880
    p->queue.pages[i] = -1;
    800026a4:	56fd                	li	a3,-1
    800026a6:	c394                	sw	a3,0(a5)
  for(int i=0; i<32; i++){
    800026a8:	0791                	addi	a5,a5,4
    800026aa:	fee79ee3          	bne	a5,a4,800026a6 <allocproc+0xc2>
}
    800026ae:	8526                	mv	a0,s1
    800026b0:	70a2                	ld	ra,40(sp)
    800026b2:	7402                	ld	s0,32(sp)
    800026b4:	64e2                	ld	s1,24(sp)
    800026b6:	6942                	ld	s2,16(sp)
    800026b8:	69a2                	ld	s3,8(sp)
    800026ba:	6145                	addi	sp,sp,48
    800026bc:	8082                	ret
    freeproc(p);
    800026be:	8526                	mv	a0,s1
    800026c0:	00000097          	auipc	ra,0x0
    800026c4:	ecc080e7          	jalr	-308(ra) # 8000258c <freeproc>
    release(&p->lock);
    800026c8:	8526                	mv	a0,s1
    800026ca:	ffffe097          	auipc	ra,0xffffe
    800026ce:	5bc080e7          	jalr	1468(ra) # 80000c86 <release>
    return 0;
    800026d2:	84ce                	mv	s1,s3
    800026d4:	bfe9                	j	800026ae <allocproc+0xca>
    freeproc(p);
    800026d6:	8526                	mv	a0,s1
    800026d8:	00000097          	auipc	ra,0x0
    800026dc:	eb4080e7          	jalr	-332(ra) # 8000258c <freeproc>
    release(&p->lock);
    800026e0:	8526                	mv	a0,s1
    800026e2:	ffffe097          	auipc	ra,0xffffe
    800026e6:	5a4080e7          	jalr	1444(ra) # 80000c86 <release>
    return 0;
    800026ea:	84ce                	mv	s1,s3
    800026ec:	b7c9                	j	800026ae <allocproc+0xca>

00000000800026ee <userinit>:
{
    800026ee:	1101                	addi	sp,sp,-32
    800026f0:	ec06                	sd	ra,24(sp)
    800026f2:	e822                	sd	s0,16(sp)
    800026f4:	e426                	sd	s1,8(sp)
    800026f6:	1000                	addi	s0,sp,32
  p = allocproc();
    800026f8:	00000097          	auipc	ra,0x0
    800026fc:	eec080e7          	jalr	-276(ra) # 800025e4 <allocproc>
    80002700:	84aa                	mv	s1,a0
  initproc = p;
    80002702:	00008797          	auipc	a5,0x8
    80002706:	92a7b323          	sd	a0,-1754(a5) # 8000a028 <initproc>
  uvminit(p->pagetable, initcode, sizeof(initcode));
    8000270a:	03400613          	li	a2,52
    8000270e:	00007597          	auipc	a1,0x7
    80002712:	2e258593          	addi	a1,a1,738 # 800099f0 <initcode>
    80002716:	6928                	ld	a0,80(a0)
    80002718:	fffff097          	auipc	ra,0xfffff
    8000271c:	c16080e7          	jalr	-1002(ra) # 8000132e <uvminit>
  p->sz = PGSIZE;
    80002720:	6785                	lui	a5,0x1
    80002722:	e4bc                	sd	a5,72(s1)
  p->trapframe->epc = 0;      // user program counter
    80002724:	6cb8                	ld	a4,88(s1)
    80002726:	00073c23          	sd	zero,24(a4) # 1018 <_entry-0x7fffefe8>
  p->trapframe->sp = PGSIZE;  // user stack pointer
    8000272a:	6cb8                	ld	a4,88(s1)
    8000272c:	fb1c                	sd	a5,48(a4)
  safestrcpy(p->name, "initcode", sizeof(p->name));
    8000272e:	4641                	li	a2,16
    80002730:	00007597          	auipc	a1,0x7
    80002734:	bf858593          	addi	a1,a1,-1032 # 80009328 <digits+0x2e8>
    80002738:	15848513          	addi	a0,s1,344
    8000273c:	ffffe097          	auipc	ra,0xffffe
    80002740:	6e4080e7          	jalr	1764(ra) # 80000e20 <safestrcpy>
  p->cwd = namei("/");
    80002744:	00007517          	auipc	a0,0x7
    80002748:	bf450513          	addi	a0,a0,-1036 # 80009338 <digits+0x2f8>
    8000274c:	00002097          	auipc	ra,0x2
    80002750:	2a2080e7          	jalr	674(ra) # 800049ee <namei>
    80002754:	14a4b823          	sd	a0,336(s1)
  p->state = RUNNABLE;
    80002758:	478d                	li	a5,3
    8000275a:	cc9c                	sw	a5,24(s1)
  release(&p->lock);
    8000275c:	8526                	mv	a0,s1
    8000275e:	ffffe097          	auipc	ra,0xffffe
    80002762:	528080e7          	jalr	1320(ra) # 80000c86 <release>
}
    80002766:	60e2                	ld	ra,24(sp)
    80002768:	6442                	ld	s0,16(sp)
    8000276a:	64a2                	ld	s1,8(sp)
    8000276c:	6105                	addi	sp,sp,32
    8000276e:	8082                	ret

0000000080002770 <growproc>:
{
    80002770:	1101                	addi	sp,sp,-32
    80002772:	ec06                	sd	ra,24(sp)
    80002774:	e822                	sd	s0,16(sp)
    80002776:	e426                	sd	s1,8(sp)
    80002778:	e04a                	sd	s2,0(sp)
    8000277a:	1000                	addi	s0,sp,32
    8000277c:	892a                	mv	s2,a0
  struct proc *p = myproc();
    8000277e:	00000097          	auipc	ra,0x0
    80002782:	c5c080e7          	jalr	-932(ra) # 800023da <myproc>
    80002786:	84aa                	mv	s1,a0
  if(n < 0){
    80002788:	00094d63          	bltz	s2,800027a2 <growproc+0x32>
  p->sz = p->sz + n;
    8000278c:	64a8                	ld	a0,72(s1)
    8000278e:	992a                	add	s2,s2,a0
    80002790:	0524b423          	sd	s2,72(s1)
}
    80002794:	4501                	li	a0,0
    80002796:	60e2                	ld	ra,24(sp)
    80002798:	6442                	ld	s0,16(sp)
    8000279a:	64a2                	ld	s1,8(sp)
    8000279c:	6902                	ld	s2,0(sp)
    8000279e:	6105                	addi	sp,sp,32
    800027a0:	8082                	ret
  sz = p->sz;
    800027a2:	652c                	ld	a1,72(a0)
    sz = uvmdealloc(p->pagetable, sz, sz + n);
    800027a4:	00b9063b          	addw	a2,s2,a1
    800027a8:	1602                	slli	a2,a2,0x20
    800027aa:	9201                	srli	a2,a2,0x20
    800027ac:	1582                	slli	a1,a1,0x20
    800027ae:	9181                	srli	a1,a1,0x20
    800027b0:	6928                	ld	a0,80(a0)
    800027b2:	fffff097          	auipc	ra,0xfffff
    800027b6:	236080e7          	jalr	566(ra) # 800019e8 <uvmdealloc>
    800027ba:	bfc9                	j	8000278c <growproc+0x1c>

00000000800027bc <copy_swap_file>:
copy_swap_file(struct proc* child){
    800027bc:	7139                	addi	sp,sp,-64
    800027be:	fc06                	sd	ra,56(sp)
    800027c0:	f822                	sd	s0,48(sp)
    800027c2:	f426                	sd	s1,40(sp)
    800027c4:	f04a                	sd	s2,32(sp)
    800027c6:	ec4e                	sd	s3,24(sp)
    800027c8:	e852                	sd	s4,16(sp)
    800027ca:	e456                	sd	s5,8(sp)
    800027cc:	e05a                	sd	s6,0(sp)
    800027ce:	0080                	addi	s0,sp,64
    800027d0:	8b2a                	mv	s6,a0
  struct proc * pParent = myproc();
    800027d2:	00000097          	auipc	ra,0x0
    800027d6:	c08080e7          	jalr	-1016(ra) # 800023da <myproc>
  for(uint64 i = 0; i < pParent->sz; i += PGSIZE){
    800027da:	653c                	ld	a5,72(a0)
    800027dc:	cfd9                	beqz	a5,8000287a <copy_swap_file+0xbe>
    800027de:	8a2a                	mv	s4,a0
    800027e0:	4481                	li	s1,0
    if(offset != -1){
    800027e2:	5afd                	li	s5,-1
    800027e4:	a83d                	j	80002822 <copy_swap_file+0x66>
      panic("not enough space to kalloc");
    800027e6:	00007517          	auipc	a0,0x7
    800027ea:	aba50513          	addi	a0,a0,-1350 # 800092a0 <digits+0x260>
    800027ee:	ffffe097          	auipc	ra,0xffffe
    800027f2:	d3c080e7          	jalr	-708(ra) # 8000052a <panic>
          panic("read swap file failed\n");
    800027f6:	00007517          	auipc	a0,0x7
    800027fa:	b4a50513          	addi	a0,a0,-1206 # 80009340 <digits+0x300>
    800027fe:	ffffe097          	auipc	ra,0xffffe
    80002802:	d2c080e7          	jalr	-724(ra) # 8000052a <panic>
          panic("write swap file failed\n");
    80002806:	00007517          	auipc	a0,0x7
    8000280a:	b5250513          	addi	a0,a0,-1198 # 80009358 <digits+0x318>
    8000280e:	ffffe097          	auipc	ra,0xffffe
    80002812:	d1c080e7          	jalr	-740(ra) # 8000052a <panic>
  for(uint64 i = 0; i < pParent->sz; i += PGSIZE){
    80002816:	6785                	lui	a5,0x1
    80002818:	94be                	add	s1,s1,a5
    8000281a:	048a3783          	ld	a5,72(s4)
    8000281e:	04f4fe63          	bgeu	s1,a5,8000287a <copy_swap_file+0xbe>
    offset = pParent->paging_meta_data[i/PGSIZE].offset;
    80002822:	00c4d713          	srli	a4,s1,0xc
    80002826:	00171793          	slli	a5,a4,0x1
    8000282a:	97ba                	add	a5,a5,a4
    8000282c:	078a                	slli	a5,a5,0x2
    8000282e:	97d2                	add	a5,a5,s4
    80002830:	1707a903          	lw	s2,368(a5) # 1170 <_entry-0x7fffee90>
    if(offset != -1){
    80002834:	ff5901e3          	beq	s2,s5,80002816 <copy_swap_file+0x5a>
      if((buffer = kalloc()) == 0)
    80002838:	ffffe097          	auipc	ra,0xffffe
    8000283c:	2aa080e7          	jalr	682(ra) # 80000ae2 <kalloc>
    80002840:	89aa                	mv	s3,a0
    80002842:	d155                	beqz	a0,800027e6 <copy_swap_file+0x2a>
      if(readFromSwapFile(pParent, buffer, offset, PGSIZE) == -1)
    80002844:	2901                	sext.w	s2,s2
    80002846:	6685                	lui	a3,0x1
    80002848:	864a                	mv	a2,s2
    8000284a:	85aa                	mv	a1,a0
    8000284c:	8552                	mv	a0,s4
    8000284e:	00002097          	auipc	ra,0x2
    80002852:	4c8080e7          	jalr	1224(ra) # 80004d16 <readFromSwapFile>
    80002856:	fb5500e3          	beq	a0,s5,800027f6 <copy_swap_file+0x3a>
      if(writeToSwapFile(child, buffer, offset, PGSIZE ) == -1)
    8000285a:	6685                	lui	a3,0x1
    8000285c:	864a                	mv	a2,s2
    8000285e:	85ce                	mv	a1,s3
    80002860:	855a                	mv	a0,s6
    80002862:	00002097          	auipc	ra,0x2
    80002866:	490080e7          	jalr	1168(ra) # 80004cf2 <writeToSwapFile>
    8000286a:	f9550ee3          	beq	a0,s5,80002806 <copy_swap_file+0x4a>
      kfree(buffer);
    8000286e:	854e                	mv	a0,s3
    80002870:	ffffe097          	auipc	ra,0xffffe
    80002874:	166080e7          	jalr	358(ra) # 800009d6 <kfree>
    80002878:	bf79                	j	80002816 <copy_swap_file+0x5a>
}
    8000287a:	70e2                	ld	ra,56(sp)
    8000287c:	7442                	ld	s0,48(sp)
    8000287e:	74a2                	ld	s1,40(sp)
    80002880:	7902                	ld	s2,32(sp)
    80002882:	69e2                	ld	s3,24(sp)
    80002884:	6a42                	ld	s4,16(sp)
    80002886:	6aa2                	ld	s5,8(sp)
    80002888:	6b02                	ld	s6,0(sp)
    8000288a:	6121                	addi	sp,sp,64
    8000288c:	8082                	ret

000000008000288e <fork>:
{
    8000288e:	715d                	addi	sp,sp,-80
    80002890:	e486                	sd	ra,72(sp)
    80002892:	e0a2                	sd	s0,64(sp)
    80002894:	fc26                	sd	s1,56(sp)
    80002896:	f84a                	sd	s2,48(sp)
    80002898:	f44e                	sd	s3,40(sp)
    8000289a:	f052                	sd	s4,32(sp)
    8000289c:	ec56                	sd	s5,24(sp)
    8000289e:	e85a                	sd	s6,16(sp)
    800028a0:	e45e                	sd	s7,8(sp)
    800028a2:	0880                	addi	s0,sp,80
  struct proc *p = myproc();
    800028a4:	00000097          	auipc	ra,0x0
    800028a8:	b36080e7          	jalr	-1226(ra) # 800023da <myproc>
    800028ac:	8aaa                	mv	s5,a0
  if((np = allocproc()) == 0){
    800028ae:	00000097          	auipc	ra,0x0
    800028b2:	d36080e7          	jalr	-714(ra) # 800025e4 <allocproc>
    800028b6:	20050763          	beqz	a0,80002ac4 <fork+0x236>
    800028ba:	8a2a                	mv	s4,a0
  if(uvmcopy(p->pagetable, np->pagetable, p->sz) < 0){
    800028bc:	048ab603          	ld	a2,72(s5)
    800028c0:	692c                	ld	a1,80(a0)
    800028c2:	050ab503          	ld	a0,80(s5)
    800028c6:	fffff097          	auipc	ra,0xfffff
    800028ca:	4e0080e7          	jalr	1248(ra) # 80001da6 <uvmcopy>
    800028ce:	04054863          	bltz	a0,8000291e <fork+0x90>
  np->sz = p->sz;
    800028d2:	048ab783          	ld	a5,72(s5)
    800028d6:	04fa3423          	sd	a5,72(s4)
  *(np->trapframe) = *(p->trapframe);
    800028da:	058ab683          	ld	a3,88(s5)
    800028de:	87b6                	mv	a5,a3
    800028e0:	058a3703          	ld	a4,88(s4)
    800028e4:	12068693          	addi	a3,a3,288 # 1120 <_entry-0x7fffeee0>
    800028e8:	0007b803          	ld	a6,0(a5)
    800028ec:	6788                	ld	a0,8(a5)
    800028ee:	6b8c                	ld	a1,16(a5)
    800028f0:	6f90                	ld	a2,24(a5)
    800028f2:	01073023          	sd	a6,0(a4)
    800028f6:	e708                	sd	a0,8(a4)
    800028f8:	eb0c                	sd	a1,16(a4)
    800028fa:	ef10                	sd	a2,24(a4)
    800028fc:	02078793          	addi	a5,a5,32
    80002900:	02070713          	addi	a4,a4,32
    80002904:	fed792e3          	bne	a5,a3,800028e8 <fork+0x5a>
  np->trapframe->a0 = 0;
    80002908:	058a3783          	ld	a5,88(s4)
    8000290c:	0607b823          	sd	zero,112(a5)
  for(i = 0; i < NOFILE; i++)
    80002910:	0d0a8493          	addi	s1,s5,208
    80002914:	0d0a0913          	addi	s2,s4,208
    80002918:	150a8993          	addi	s3,s5,336
    8000291c:	a03d                	j	8000294a <fork+0xbc>
    freeproc(np);
    8000291e:	8552                	mv	a0,s4
    80002920:	00000097          	auipc	ra,0x0
    80002924:	c6c080e7          	jalr	-916(ra) # 8000258c <freeproc>
    release(&np->lock);
    80002928:	8552                	mv	a0,s4
    8000292a:	ffffe097          	auipc	ra,0xffffe
    8000292e:	35c080e7          	jalr	860(ra) # 80000c86 <release>
    return -1;
    80002932:	5b7d                	li	s6,-1
    80002934:	a2b9                	j	80002a82 <fork+0x1f4>
      np->ofile[i] = filedup(p->ofile[i]);
    80002936:	00003097          	auipc	ra,0x3
    8000293a:	a64080e7          	jalr	-1436(ra) # 8000539a <filedup>
    8000293e:	00a93023          	sd	a0,0(s2)
  for(i = 0; i < NOFILE; i++)
    80002942:	04a1                	addi	s1,s1,8
    80002944:	0921                	addi	s2,s2,8
    80002946:	01348563          	beq	s1,s3,80002950 <fork+0xc2>
    if(p->ofile[i])
    8000294a:	6088                	ld	a0,0(s1)
    8000294c:	f56d                	bnez	a0,80002936 <fork+0xa8>
    8000294e:	bfd5                	j	80002942 <fork+0xb4>
  np->cwd = idup(p->cwd);
    80002950:	150ab503          	ld	a0,336(s5)
    80002954:	00002097          	auipc	ra,0x2
    80002958:	888080e7          	jalr	-1912(ra) # 800041dc <idup>
    8000295c:	14aa3823          	sd	a0,336(s4)
  safestrcpy(np->name, p->name, sizeof(p->name));
    80002960:	4641                	li	a2,16
    80002962:	158a8593          	addi	a1,s5,344
    80002966:	158a0513          	addi	a0,s4,344
    8000296a:	ffffe097          	auipc	ra,0xffffe
    8000296e:	4b6080e7          	jalr	1206(ra) # 80000e20 <safestrcpy>
  pid = np->pid;
    80002972:	030a2b03          	lw	s6,48(s4)
  release(&np->lock);
    80002976:	8552                	mv	a0,s4
    80002978:	ffffe097          	auipc	ra,0xffffe
    8000297c:	30e080e7          	jalr	782(ra) # 80000c86 <release>
    if(np->pid >2){
    80002980:	030a2703          	lw	a4,48(s4)
    80002984:	4789                	li	a5,2
    80002986:	10e7ca63          	blt	a5,a4,80002a9a <fork+0x20c>
    if(p->pid > 2){ 
    8000298a:	030aa703          	lw	a4,48(s5)
    8000298e:	4789                	li	a5,2
    80002990:	12e7c463          	blt	a5,a4,80002ab8 <fork+0x22a>
    for(int i=0; i<32; i++){
    80002994:	170a0993          	addi	s3,s4,368
{
    80002998:	4901                	li	s2,0
    for(int i=0; i<32; i++){
    8000299a:	02000b93          	li	s7,32
      np->paging_meta_data[i].offset = myproc()->paging_meta_data[i].offset;
    8000299e:	00000097          	auipc	ra,0x0
    800029a2:	a3c080e7          	jalr	-1476(ra) # 800023da <myproc>
    800029a6:	00191493          	slli	s1,s2,0x1
    800029aa:	012487b3          	add	a5,s1,s2
    800029ae:	078a                	slli	a5,a5,0x2
    800029b0:	953e                	add	a0,a0,a5
    800029b2:	17052783          	lw	a5,368(a0)
    800029b6:	00f9a023          	sw	a5,0(s3)
      np->paging_meta_data[i].aging = myproc()->paging_meta_data[i].aging;
    800029ba:	00000097          	auipc	ra,0x0
    800029be:	a20080e7          	jalr	-1504(ra) # 800023da <myproc>
    800029c2:	012487b3          	add	a5,s1,s2
    800029c6:	078a                	slli	a5,a5,0x2
    800029c8:	953e                	add	a0,a0,a5
    800029ca:	17452783          	lw	a5,372(a0)
    800029ce:	00f9a223          	sw	a5,4(s3)
      np->paging_meta_data[i].in_memory = myproc()->paging_meta_data[i].in_memory;
    800029d2:	00000097          	auipc	ra,0x0
    800029d6:	a08080e7          	jalr	-1528(ra) # 800023da <myproc>
    800029da:	94ca                	add	s1,s1,s2
    800029dc:	048a                	slli	s1,s1,0x2
    800029de:	94aa                	add	s1,s1,a0
    800029e0:	1784a783          	lw	a5,376(s1)
    800029e4:	00f9a423          	sw	a5,8(s3)
    for(int i=0; i<32; i++){
    800029e8:	2905                	addiw	s2,s2,1
    800029ea:	09b1                	addi	s3,s3,12
    800029ec:	fb7919e3          	bne	s2,s7,8000299e <fork+0x110>
    np->queue.front = myproc()->queue.front;
    800029f0:	00000097          	auipc	ra,0x0
    800029f4:	9ea080e7          	jalr	-1558(ra) # 800023da <myproc>
    800029f8:	37052783          	lw	a5,880(a0)
    800029fc:	36fa2823          	sw	a5,880(s4)
    np->queue.last = myproc()->queue.last;
    80002a00:	00000097          	auipc	ra,0x0
    80002a04:	9da080e7          	jalr	-1574(ra) # 800023da <myproc>
    80002a08:	37452783          	lw	a5,884(a0)
    80002a0c:	36fa2a23          	sw	a5,884(s4)
    np->queue.page_counter = myproc()->queue.page_counter;
    80002a10:	00000097          	auipc	ra,0x0
    80002a14:	9ca080e7          	jalr	-1590(ra) # 800023da <myproc>
    80002a18:	37852783          	lw	a5,888(a0)
    80002a1c:	36fa2c23          	sw	a5,888(s4)
    for(int i=0; i<32; i++){
    80002a20:	2f0a0913          	addi	s2,s4,752
    80002a24:	4481                	li	s1,0
    80002a26:	02000993          	li	s3,32
      np->queue.pages[i] = myproc()->queue.pages[i];
    80002a2a:	00000097          	auipc	ra,0x0
    80002a2e:	9b0080e7          	jalr	-1616(ra) # 800023da <myproc>
    80002a32:	0bc48793          	addi	a5,s1,188
    80002a36:	078a                	slli	a5,a5,0x2
    80002a38:	953e                	add	a0,a0,a5
    80002a3a:	411c                	lw	a5,0(a0)
    80002a3c:	00f92023          	sw	a5,0(s2)
    for(int i=0; i<32; i++){
    80002a40:	2485                	addiw	s1,s1,1
    80002a42:	0911                	addi	s2,s2,4
    80002a44:	ff3493e3          	bne	s1,s3,80002a2a <fork+0x19c>
  acquire(&wait_lock);
    80002a48:	00010497          	auipc	s1,0x10
    80002a4c:	87048493          	addi	s1,s1,-1936 # 800122b8 <wait_lock>
    80002a50:	8526                	mv	a0,s1
    80002a52:	ffffe097          	auipc	ra,0xffffe
    80002a56:	180080e7          	jalr	384(ra) # 80000bd2 <acquire>
  np->parent = p;
    80002a5a:	035a3c23          	sd	s5,56(s4)
  release(&wait_lock);
    80002a5e:	8526                	mv	a0,s1
    80002a60:	ffffe097          	auipc	ra,0xffffe
    80002a64:	226080e7          	jalr	550(ra) # 80000c86 <release>
  acquire(&np->lock);
    80002a68:	8552                	mv	a0,s4
    80002a6a:	ffffe097          	auipc	ra,0xffffe
    80002a6e:	168080e7          	jalr	360(ra) # 80000bd2 <acquire>
  np->state = RUNNABLE;
    80002a72:	478d                	li	a5,3
    80002a74:	00fa2c23          	sw	a5,24(s4)
  release(&np->lock);
    80002a78:	8552                	mv	a0,s4
    80002a7a:	ffffe097          	auipc	ra,0xffffe
    80002a7e:	20c080e7          	jalr	524(ra) # 80000c86 <release>
}
    80002a82:	855a                	mv	a0,s6
    80002a84:	60a6                	ld	ra,72(sp)
    80002a86:	6406                	ld	s0,64(sp)
    80002a88:	74e2                	ld	s1,56(sp)
    80002a8a:	7942                	ld	s2,48(sp)
    80002a8c:	79a2                	ld	s3,40(sp)
    80002a8e:	7a02                	ld	s4,32(sp)
    80002a90:	6ae2                	ld	s5,24(sp)
    80002a92:	6b42                	ld	s6,16(sp)
    80002a94:	6ba2                	ld	s7,8(sp)
    80002a96:	6161                	addi	sp,sp,80
    80002a98:	8082                	ret
      if(createSwapFile(np) != 0){
    80002a9a:	8552                	mv	a0,s4
    80002a9c:	00002097          	auipc	ra,0x2
    80002aa0:	1a6080e7          	jalr	422(ra) # 80004c42 <createSwapFile>
    80002aa4:	ee0503e3          	beqz	a0,8000298a <fork+0xfc>
        panic("create swap file failed");
    80002aa8:	00007517          	auipc	a0,0x7
    80002aac:	8c850513          	addi	a0,a0,-1848 # 80009370 <digits+0x330>
    80002ab0:	ffffe097          	auipc	ra,0xffffe
    80002ab4:	a7a080e7          	jalr	-1414(ra) # 8000052a <panic>
        copy_swap_file(np);
    80002ab8:	8552                	mv	a0,s4
    80002aba:	00000097          	auipc	ra,0x0
    80002abe:	d02080e7          	jalr	-766(ra) # 800027bc <copy_swap_file>
    80002ac2:	bdc9                	j	80002994 <fork+0x106>
    return -1;
    80002ac4:	5b7d                	li	s6,-1
    80002ac6:	bf75                	j	80002a82 <fork+0x1f4>

0000000080002ac8 <scheduler>:
{
    80002ac8:	7139                	addi	sp,sp,-64
    80002aca:	fc06                	sd	ra,56(sp)
    80002acc:	f822                	sd	s0,48(sp)
    80002ace:	f426                	sd	s1,40(sp)
    80002ad0:	f04a                	sd	s2,32(sp)
    80002ad2:	ec4e                	sd	s3,24(sp)
    80002ad4:	e852                	sd	s4,16(sp)
    80002ad6:	e456                	sd	s5,8(sp)
    80002ad8:	e05a                	sd	s6,0(sp)
    80002ada:	0080                	addi	s0,sp,64
    80002adc:	8792                	mv	a5,tp
  int id = r_tp();
    80002ade:	2781                	sext.w	a5,a5
  c->proc = 0;
    80002ae0:	00779a93          	slli	s5,a5,0x7
    80002ae4:	0000f717          	auipc	a4,0xf
    80002ae8:	7bc70713          	addi	a4,a4,1980 # 800122a0 <pid_lock>
    80002aec:	9756                	add	a4,a4,s5
    80002aee:	02073823          	sd	zero,48(a4)
        swtch(&c->context, &p->context);
    80002af2:	0000f717          	auipc	a4,0xf
    80002af6:	7e670713          	addi	a4,a4,2022 # 800122d8 <cpus+0x8>
    80002afa:	9aba                	add	s5,s5,a4
      if(p->state == RUNNABLE) {
    80002afc:	498d                	li	s3,3
        p->state = RUNNING;
    80002afe:	4b11                	li	s6,4
        c->proc = p;
    80002b00:	079e                	slli	a5,a5,0x7
    80002b02:	0000fa17          	auipc	s4,0xf
    80002b06:	79ea0a13          	addi	s4,s4,1950 # 800122a0 <pid_lock>
    80002b0a:	9a3e                	add	s4,s4,a5
    for(p = proc; p < &proc[NPROC]; p++) {
    80002b0c:	0001e917          	auipc	s2,0x1e
    80002b10:	bc490913          	addi	s2,s2,-1084 # 800206d0 <tickslock>
  asm volatile("csrr %0, sstatus" : "=r" (x) );
    80002b14:	100027f3          	csrr	a5,sstatus
  w_sstatus(r_sstatus() | SSTATUS_SIE);
    80002b18:	0027e793          	ori	a5,a5,2
  asm volatile("csrw sstatus, %0" : : "r" (x));
    80002b1c:	10079073          	csrw	sstatus,a5
    80002b20:	00010497          	auipc	s1,0x10
    80002b24:	bb048493          	addi	s1,s1,-1104 # 800126d0 <proc>
    80002b28:	a811                	j	80002b3c <scheduler+0x74>
      release(&p->lock);
    80002b2a:	8526                	mv	a0,s1
    80002b2c:	ffffe097          	auipc	ra,0xffffe
    80002b30:	15a080e7          	jalr	346(ra) # 80000c86 <release>
    for(p = proc; p < &proc[NPROC]; p++) {
    80002b34:	38048493          	addi	s1,s1,896
    80002b38:	fd248ee3          	beq	s1,s2,80002b14 <scheduler+0x4c>
      acquire(&p->lock);
    80002b3c:	8526                	mv	a0,s1
    80002b3e:	ffffe097          	auipc	ra,0xffffe
    80002b42:	094080e7          	jalr	148(ra) # 80000bd2 <acquire>
      if(p->state == RUNNABLE) {
    80002b46:	4c9c                	lw	a5,24(s1)
    80002b48:	ff3791e3          	bne	a5,s3,80002b2a <scheduler+0x62>
        p->state = RUNNING;
    80002b4c:	0164ac23          	sw	s6,24(s1)
        c->proc = p;
    80002b50:	029a3823          	sd	s1,48(s4)
        swtch(&c->context, &p->context);
    80002b54:	06048593          	addi	a1,s1,96
    80002b58:	8556                	mv	a0,s5
    80002b5a:	00000097          	auipc	ra,0x0
    80002b5e:	63e080e7          	jalr	1598(ra) # 80003198 <swtch>
        update_aging_algorithms();
    80002b62:	fffff097          	auipc	ra,0xfffff
    80002b66:	6e0080e7          	jalr	1760(ra) # 80002242 <update_aging_algorithms>
        c->proc = 0;
    80002b6a:	020a3823          	sd	zero,48(s4)
    80002b6e:	bf75                	j	80002b2a <scheduler+0x62>

0000000080002b70 <sched>:
{
    80002b70:	7179                	addi	sp,sp,-48
    80002b72:	f406                	sd	ra,40(sp)
    80002b74:	f022                	sd	s0,32(sp)
    80002b76:	ec26                	sd	s1,24(sp)
    80002b78:	e84a                	sd	s2,16(sp)
    80002b7a:	e44e                	sd	s3,8(sp)
    80002b7c:	1800                	addi	s0,sp,48
  struct proc *p = myproc();
    80002b7e:	00000097          	auipc	ra,0x0
    80002b82:	85c080e7          	jalr	-1956(ra) # 800023da <myproc>
    80002b86:	84aa                	mv	s1,a0
  if(!holding(&p->lock))
    80002b88:	ffffe097          	auipc	ra,0xffffe
    80002b8c:	fd0080e7          	jalr	-48(ra) # 80000b58 <holding>
    80002b90:	c93d                	beqz	a0,80002c06 <sched+0x96>
  asm volatile("mv %0, tp" : "=r" (x) );
    80002b92:	8792                	mv	a5,tp
  if(mycpu()->noff != 1)
    80002b94:	2781                	sext.w	a5,a5
    80002b96:	079e                	slli	a5,a5,0x7
    80002b98:	0000f717          	auipc	a4,0xf
    80002b9c:	70870713          	addi	a4,a4,1800 # 800122a0 <pid_lock>
    80002ba0:	97ba                	add	a5,a5,a4
    80002ba2:	0a87a703          	lw	a4,168(a5)
    80002ba6:	4785                	li	a5,1
    80002ba8:	06f71763          	bne	a4,a5,80002c16 <sched+0xa6>
  if(p->state == RUNNING)
    80002bac:	4c98                	lw	a4,24(s1)
    80002bae:	4791                	li	a5,4
    80002bb0:	06f70b63          	beq	a4,a5,80002c26 <sched+0xb6>
  asm volatile("csrr %0, sstatus" : "=r" (x) );
    80002bb4:	100027f3          	csrr	a5,sstatus
  return (x & SSTATUS_SIE) != 0;
    80002bb8:	8b89                	andi	a5,a5,2
  if(intr_get())
